

Microchip Technology PIC LITE Macro Assembler V2.00 build -1524193055 
                                                                                               Thu Dec 27 23:51:54 2018

Microchip Technology Omniscient Code Generator v2.00 (Free mode) build 20180527130849
     1  0000                     
      + 0000                     
     2                           ; Version 2.00
     3                           ; Generated 27/05/2018 GMT
     4                           
     5                           ; 
     6                           ; Copyright © 2018, Microchip Technology Inc. and its subsidiaries ("Microchip")
     7                           ; All rights reserved.
     8                           ; 
     9                           ; This software is developed by Microchip Technology Inc. and its subsidiaries ("Microch
                                 ip").
    10                           ; 
    11                           ; Redistribution and use in source and binary forms, with or without modification, are
    12                           ; permitted provided that the following conditions are met:
    13                           ; 
    14                           ;     1. Redistributions of source code must retain the above copyright notice, this lis
                                 t of
    15                           ;        conditions and the following disclaimer.
    16                           ; 
    17                           ;     2. Redistributions in binary form must reproduce the above copyright notice, this 
                                 list
    18                           ;        of conditions and the following disclaimer in the documentation and/or other
    19                           ;        materials provided with the distribution.
    20                           ; 
    21                           ;     3. Microchip's name may not be used to endorse or promote products derived from th
                                 is
    22                           ;        software without specific prior written permission.
    23                           ; 
    24                           ; THIS SOFTWARE IS PROVIDED BY MICROCHIP "AS IS" AND ANY EXPRESS OR IMPLIED WARRANTIES,

    25                           ; INCLUDING, BUT NOT LIMITED TO, THE IMPLIED WARRANTIES OF MERCHANTABILITY AND FITNESS F
                                 OR
    26                           ; PURPOSE ARE DISCLAIMED.  IN NO EVENT SHALL MICROCHIP BE LIABLE FOR ANY DIRECT, INDIREC
                                 T,
    27                           ; INCIDENTAL, SPECIAL, EXEMPLARY, OR CONSEQUENTIAL DAMAGES (INCLUDING BUT NOT LIMITED TO
                                 
    28                           ; PROCUREMENT OF SUBSTITUTE GOODS OR SERVICES; LOSS OF USE, DATA OR PROFITS; OR BUSINESS
                                 
    29                           ; INTERRUPTION) HOWSOEVER CAUSED AND ON ANY THEORY OF LIABILITY, WHETHER IN CONTRACT, ST
                                 RICT
    30                           ; LIABILITY, OR TORT (INCLUDING NEGLIGENCE OR OTHERWISE) ARISING IN ANY WAY OUT OF THE U
                                 SE OF
    31                           ; THIS SOFTWARE, EVEN IF ADVISED OF THE POSSIBILITY OF SUCH DAMAGE.
    32                           ; 
    33                           
    34                           
    35                           ; 
    36                           ; Code-generator required, PIC16LF1937 Definitions
    37                           ; 
    38  0008                     fsr0h equ 05h
    39  0005                     fsr0l equ 04h
    40  0004                     fsr1h equ 07h
    41  0007                     fsr1l equ 06h
    42  0006                     indf equ 00h
    43  0000                     indf0 equ 00h
    44  0000                     indf1 equ 01h
    45  0001                     intcon equ 0Bh
    46  000B                     pc equ 02h
    47  0002                     pcl equ 02h
    48  0002                     pclath equ 0Ah
    49  000A                     status equ 03h
    50  0003                     wreg equ 09h
    51  0009                     
     2                           opt pagewidth 120
     3  0000                     byte0	macro	val
     4                           	(getbyte(val,0))
     5                           endm
     6  0000                     byte1	macro	val
     7                           	(getbyte(val,1))
     8                           endm
     9  0000                     byte2	macro	val
    10                           	(getbyte(val,2))
    11                           endm
    12  0000                     byte3	macro	val
    13                           	(getbyte(val,3))
    14                           endm
    15  0000                     byte4	macro	val
    16                           	(getbyte(val,4))
    17                           endm
    18  0000                     byte5	macro	val
    19                           	(getbyte(val,5))
    20                           endm
    21  0000                     byte6	macro	val
    22                           	(getbyte(val,6))
    23                           endm
    24  0000                     byte7	macro	val
    25                           	(getbyte(val,7))
    26                           endm
    27  0000                     getword	macro	val,pos
    28                           	(((val) >> (8 * pos)) and 0xffff)
    29                           endm
    30  0000                     word0	macro	val
    31                           	(getword(val,0))
    32                           endm
    33  0000                     word1	macro	val
    34                           	(getword(val,2))
    35                           endm
    36  0000                     word2	macro	val
    37                           	(getword(val,4))
    38                           endm
    39  0000                     word3	macro	val
    40                           	(getword(val,6))
    41                           endm
    42  0000                     gettword	macro	val,pos
    43                           	(((val) >> (8 * pos)) and 0xffffff)
    44                           endm
    45  0000                     tword0	macro	val
    46                           	(gettword(val,0))
    47                           endm
    48  0000                     tword1	macro	val
    49                           	(gettword(val,3))
    50                           endm
    51  0000                     tword2	macro	val
    52                           	(gettword(val,6))
    53                           endm
    54  0000                     getdword	macro	val,pos
    55                           	(((val) >> (8 * pos)) and 0xffffffff)
    56                           endm
    57  0000                     dword0	macro	val
    58                           	(getdword(val,0))
    59                           endm
    60  0000                     dword1	macro	val
    61                           	(getdword(val,4))
    62                           endm
    63  0000                     clrc	macro
    64                           	bcf	3,0
    65                           	endm
    66  0000                     clrz	macro
    67                           	bcf	3,2
    68                           	endm
    69  0000                     setc	macro
    70                           	bsf	3,0
    71                           	endm
    72  0000                     setz	macro
    73                           	bsf	3,2
    74                           	endm
    75  0000                     skipc	macro
    76                           	btfss	3,0
    77                           	endm
    78  0000                     skipz	macro
    79                           	btfss	3,2
    80                           	endm
    81  0000                     skipnc	macro
    82                           	btfsc	3,0
    83                           	endm
    84  0000                     skipnz	macro
    85                           	btfsc	3,2
    86                           	endm
    87  0000                     pushw	macro
    88                           	movwi fsr1++
    89                           	endm
    90  0000                     popw	macro
    91                           	moviw --fsr1
    92                           	endm
    93  0000                     # 54 "C:\Program Files (x86)\Microchip\xc8\v2.00\pic\include\pic16lf1937.h"
    94                           INDF0 equ 00h ;# 
    95  0000                     # 74 "C:\Program Files (x86)\Microchip\xc8\v2.00\pic\include\pic16lf1937.h"
    96                           INDF1 equ 01h ;# 
    97  0001                     # 94 "C:\Program Files (x86)\Microchip\xc8\v2.00\pic\include\pic16lf1937.h"
    98                           PCL equ 02h ;# 
    99  0002                     # 114 "C:\Program Files (x86)\Microchip\xc8\v2.00\pic\include\pic16lf1937.h"
   100                           STATUS equ 03h ;# 
   101  0003                     # 177 "C:\Program Files (x86)\Microchip\xc8\v2.00\pic\include\pic16lf1937.h"
   102                           FSR0L equ 04h ;# 
   103  0004                     # 197 "C:\Program Files (x86)\Microchip\xc8\v2.00\pic\include\pic16lf1937.h"
   104                           FSR0H equ 05h ;# 
   105  0005                     # 221 "C:\Program Files (x86)\Microchip\xc8\v2.00\pic\include\pic16lf1937.h"
   106                           FSR1L equ 06h ;# 
   107  0006                     # 241 "C:\Program Files (x86)\Microchip\xc8\v2.00\pic\include\pic16lf1937.h"
   108                           FSR1H equ 07h ;# 
   109  0007                     # 261 "C:\Program Files (x86)\Microchip\xc8\v2.00\pic\include\pic16lf1937.h"
   110                           BSR equ 08h ;# 
   111  0008                     # 313 "C:\Program Files (x86)\Microchip\xc8\v2.00\pic\include\pic16lf1937.h"
   112                           WREG equ 09h ;# 
   113  0009                     # 333 "C:\Program Files (x86)\Microchip\xc8\v2.00\pic\include\pic16lf1937.h"
   114                           PCLATH equ 0Ah ;# 
   115  000A                     # 353 "C:\Program Files (x86)\Microchip\xc8\v2.00\pic\include\pic16lf1937.h"
   116                           INTCON equ 0Bh ;# 
   117  000B                     # 431 "C:\Program Files (x86)\Microchip\xc8\v2.00\pic\include\pic16lf1937.h"
   118                           PORTA equ 0Ch ;# 
   119  000C                     # 493 "C:\Program Files (x86)\Microchip\xc8\v2.00\pic\include\pic16lf1937.h"
   120                           PORTB equ 0Dh ;# 
   121  000D                     # 555 "C:\Program Files (x86)\Microchip\xc8\v2.00\pic\include\pic16lf1937.h"
   122                           PORTC equ 0Eh ;# 
   123  000E                     # 617 "C:\Program Files (x86)\Microchip\xc8\v2.00\pic\include\pic16lf1937.h"
   124                           PORTD equ 0Fh ;# 
   125  000F                     # 679 "C:\Program Files (x86)\Microchip\xc8\v2.00\pic\include\pic16lf1937.h"
   126                           PORTE equ 010h ;# 
   127  0010                     # 717 "C:\Program Files (x86)\Microchip\xc8\v2.00\pic\include\pic16lf1937.h"
   128                           PIR1 equ 011h ;# 
   129  0011                     # 779 "C:\Program Files (x86)\Microchip\xc8\v2.00\pic\include\pic16lf1937.h"
   130                           PIR2 equ 012h ;# 
   131  0012                     # 836 "C:\Program Files (x86)\Microchip\xc8\v2.00\pic\include\pic16lf1937.h"
   132                           PIR3 equ 013h ;# 
   133  0013                     # 882 "C:\Program Files (x86)\Microchip\xc8\v2.00\pic\include\pic16lf1937.h"
   134                           TMR0 equ 015h ;# 
   135  0015                     # 902 "C:\Program Files (x86)\Microchip\xc8\v2.00\pic\include\pic16lf1937.h"
   136                           TMR1 equ 016h ;# 
   137  0016                     # 909 "C:\Program Files (x86)\Microchip\xc8\v2.00\pic\include\pic16lf1937.h"
   138                           TMR1L equ 016h ;# 
   139  0016                     # 929 "C:\Program Files (x86)\Microchip\xc8\v2.00\pic\include\pic16lf1937.h"
   140                           TMR1H equ 017h ;# 
   141  0017                     # 949 "C:\Program Files (x86)\Microchip\xc8\v2.00\pic\include\pic16lf1937.h"
   142                           T1CON equ 018h ;# 
   143  0018                     # 1021 "C:\Program Files (x86)\Microchip\xc8\v2.00\pic\include\pic16lf1937.h"
   144                           T1GCON equ 019h ;# 
   145  0019                     # 1098 "C:\Program Files (x86)\Microchip\xc8\v2.00\pic\include\pic16lf1937.h"
   146                           TMR2 equ 01Ah ;# 
   147  001A                     # 1118 "C:\Program Files (x86)\Microchip\xc8\v2.00\pic\include\pic16lf1937.h"
   148                           PR2 equ 01Bh ;# 
   149  001B                     # 1138 "C:\Program Files (x86)\Microchip\xc8\v2.00\pic\include\pic16lf1937.h"
   150                           T2CON equ 01Ch ;# 
   151  001C                     # 1209 "C:\Program Files (x86)\Microchip\xc8\v2.00\pic\include\pic16lf1937.h"
   152                           CPSCON0 equ 01Eh ;# 
   153  001E                     # 1263 "C:\Program Files (x86)\Microchip\xc8\v2.00\pic\include\pic16lf1937.h"
   154                           CPSCON1 equ 01Fh ;# 
   155  001F                     # 1309 "C:\Program Files (x86)\Microchip\xc8\v2.00\pic\include\pic16lf1937.h"
   156                           TRISA equ 08Ch ;# 
   157  008C                     # 1371 "C:\Program Files (x86)\Microchip\xc8\v2.00\pic\include\pic16lf1937.h"
   158                           TRISB equ 08Dh ;# 
   159  008D                     # 1433 "C:\Program Files (x86)\Microchip\xc8\v2.00\pic\include\pic16lf1937.h"
   160                           TRISC equ 08Eh ;# 
   161  008E                     # 1495 "C:\Program Files (x86)\Microchip\xc8\v2.00\pic\include\pic16lf1937.h"
   162                           TRISD equ 08Fh ;# 
   163  008F                     # 1557 "C:\Program Files (x86)\Microchip\xc8\v2.00\pic\include\pic16lf1937.h"
   164                           TRISE equ 090h ;# 
   165  0090                     # 1595 "C:\Program Files (x86)\Microchip\xc8\v2.00\pic\include\pic16lf1937.h"
   166                           PIE1 equ 091h ;# 
   167  0091                     # 1657 "C:\Program Files (x86)\Microchip\xc8\v2.00\pic\include\pic16lf1937.h"
   168                           PIE2 equ 092h ;# 
   169  0092                     # 1714 "C:\Program Files (x86)\Microchip\xc8\v2.00\pic\include\pic16lf1937.h"
   170                           PIE3 equ 093h ;# 
   171  0093                     # 1760 "C:\Program Files (x86)\Microchip\xc8\v2.00\pic\include\pic16lf1937.h"
   172                           OPTION_REG equ 095h ;# 
   173  0095                     # 1843 "C:\Program Files (x86)\Microchip\xc8\v2.00\pic\include\pic16lf1937.h"
   174                           PCON equ 096h ;# 
   175  0096                     # 1894 "C:\Program Files (x86)\Microchip\xc8\v2.00\pic\include\pic16lf1937.h"
   176                           WDTCON equ 097h ;# 
   177  0097                     # 1953 "C:\Program Files (x86)\Microchip\xc8\v2.00\pic\include\pic16lf1937.h"
   178                           OSCTUNE equ 098h ;# 
   179  0098                     # 2011 "C:\Program Files (x86)\Microchip\xc8\v2.00\pic\include\pic16lf1937.h"
   180                           OSCCON equ 099h ;# 
   181  0099                     # 2083 "C:\Program Files (x86)\Microchip\xc8\v2.00\pic\include\pic16lf1937.h"
   182                           OSCSTAT equ 09Ah ;# 
   183  009A                     # 2145 "C:\Program Files (x86)\Microchip\xc8\v2.00\pic\include\pic16lf1937.h"
   184                           ADRES equ 09Bh ;# 
   185  009B                     # 2152 "C:\Program Files (x86)\Microchip\xc8\v2.00\pic\include\pic16lf1937.h"
   186                           ADRESL equ 09Bh ;# 
   187  009B                     # 2172 "C:\Program Files (x86)\Microchip\xc8\v2.00\pic\include\pic16lf1937.h"
   188                           ADRESH equ 09Ch ;# 
   189  009C                     # 2192 "C:\Program Files (x86)\Microchip\xc8\v2.00\pic\include\pic16lf1937.h"
   190                           ADCON0 equ 09Dh ;# 
   191  009D                     # 2281 "C:\Program Files (x86)\Microchip\xc8\v2.00\pic\include\pic16lf1937.h"
   192                           ADCON1 equ 09Eh ;# 
   193  009E                     # 2353 "C:\Program Files (x86)\Microchip\xc8\v2.00\pic\include\pic16lf1937.h"
   194                           LATA equ 010Ch ;# 
   195  010C                     # 2415 "C:\Program Files (x86)\Microchip\xc8\v2.00\pic\include\pic16lf1937.h"
   196                           LATB equ 010Dh ;# 
   197  010D                     # 2477 "C:\Program Files (x86)\Microchip\xc8\v2.00\pic\include\pic16lf1937.h"
   198                           LATC equ 010Eh ;# 
   199  010E                     # 2539 "C:\Program Files (x86)\Microchip\xc8\v2.00\pic\include\pic16lf1937.h"
   200                           LATD equ 010Fh ;# 
   201  010F                     # 2609 "C:\Program Files (x86)\Microchip\xc8\v2.00\pic\include\pic16lf1937.h"
   202                           LATE equ 0110h ;# 
   203  0110                     # 2647 "C:\Program Files (x86)\Microchip\xc8\v2.00\pic\include\pic16lf1937.h"
   204                           CM1CON0 equ 0111h ;# 
   205  0111                     # 2704 "C:\Program Files (x86)\Microchip\xc8\v2.00\pic\include\pic16lf1937.h"
   206                           CM1CON1 equ 0112h ;# 
   207  0112                     # 2770 "C:\Program Files (x86)\Microchip\xc8\v2.00\pic\include\pic16lf1937.h"
   208                           CM2CON0 equ 0113h ;# 
   209  0113                     # 2827 "C:\Program Files (x86)\Microchip\xc8\v2.00\pic\include\pic16lf1937.h"
   210                           CM2CON1 equ 0114h ;# 
   211  0114                     # 2893 "C:\Program Files (x86)\Microchip\xc8\v2.00\pic\include\pic16lf1937.h"
   212                           CMOUT equ 0115h ;# 
   213  0115                     # 2919 "C:\Program Files (x86)\Microchip\xc8\v2.00\pic\include\pic16lf1937.h"
   214                           BORCON equ 0116h ;# 
   215  0116                     # 2946 "C:\Program Files (x86)\Microchip\xc8\v2.00\pic\include\pic16lf1937.h"
   216                           FVRCON equ 0117h ;# 
   217  0117                     # 3022 "C:\Program Files (x86)\Microchip\xc8\v2.00\pic\include\pic16lf1937.h"
   218                           DACCON0 equ 0118h ;# 
   219  0118                     # 3083 "C:\Program Files (x86)\Microchip\xc8\v2.00\pic\include\pic16lf1937.h"
   220                           DACCON1 equ 0119h ;# 
   221  0119                     # 3135 "C:\Program Files (x86)\Microchip\xc8\v2.00\pic\include\pic16lf1937.h"
   222                           SRCON0 equ 011Ah ;# 
   223  011A                     # 3206 "C:\Program Files (x86)\Microchip\xc8\v2.00\pic\include\pic16lf1937.h"
   224                           SRCON1 equ 011Bh ;# 
   225  011B                     # 3268 "C:\Program Files (x86)\Microchip\xc8\v2.00\pic\include\pic16lf1937.h"
   226                           APFCON equ 011Dh ;# 
   227  011D                     # 3324 "C:\Program Files (x86)\Microchip\xc8\v2.00\pic\include\pic16lf1937.h"
   228                           ANSELA equ 018Ch ;# 
   229  018C                     # 3382 "C:\Program Files (x86)\Microchip\xc8\v2.00\pic\include\pic16lf1937.h"
   230                           ANSELB equ 018Dh ;# 
   231  018D                     # 3440 "C:\Program Files (x86)\Microchip\xc8\v2.00\pic\include\pic16lf1937.h"
   232                           ANSELD equ 018Fh ;# 
   233  018F                     # 3510 "C:\Program Files (x86)\Microchip\xc8\v2.00\pic\include\pic16lf1937.h"
   234                           ANSELE equ 0190h ;# 
   235  0190                     # 3550 "C:\Program Files (x86)\Microchip\xc8\v2.00\pic\include\pic16lf1937.h"
   236                           EEADR equ 0191h ;# 
   237  0191                     # 3557 "C:\Program Files (x86)\Microchip\xc8\v2.00\pic\include\pic16lf1937.h"
   238                           EEADRL equ 0191h ;# 
   239  0191                     # 3577 "C:\Program Files (x86)\Microchip\xc8\v2.00\pic\include\pic16lf1937.h"
   240                           EEADRH equ 0192h ;# 
   241  0192                     # 3597 "C:\Program Files (x86)\Microchip\xc8\v2.00\pic\include\pic16lf1937.h"
   242                           EEDAT equ 0193h ;# 
   243  0193                     # 3604 "C:\Program Files (x86)\Microchip\xc8\v2.00\pic\include\pic16lf1937.h"
   244                           EEDATL equ 0193h ;# 
   245  0193                     # 3609 "C:\Program Files (x86)\Microchip\xc8\v2.00\pic\include\pic16lf1937.h"
   246                           EEDATA equ 0193h ;# 
   247  0193                     # 3642 "C:\Program Files (x86)\Microchip\xc8\v2.00\pic\include\pic16lf1937.h"
   248                           EEDATH equ 0194h ;# 
   249  0194                     # 3662 "C:\Program Files (x86)\Microchip\xc8\v2.00\pic\include\pic16lf1937.h"
   250                           EECON1 equ 0195h ;# 
   251  0195                     # 3724 "C:\Program Files (x86)\Microchip\xc8\v2.00\pic\include\pic16lf1937.h"
   252                           EECON2 equ 0196h ;# 
   253  0196                     # 3744 "C:\Program Files (x86)\Microchip\xc8\v2.00\pic\include\pic16lf1937.h"
   254                           RCREG equ 0199h ;# 
   255  0199                     # 3764 "C:\Program Files (x86)\Microchip\xc8\v2.00\pic\include\pic16lf1937.h"
   256                           TXREG equ 019Ah ;# 
   257  019A                     # 3784 "C:\Program Files (x86)\Microchip\xc8\v2.00\pic\include\pic16lf1937.h"
   258                           SP1BRG equ 019Bh ;# 
   259  019B                     # 3791 "C:\Program Files (x86)\Microchip\xc8\v2.00\pic\include\pic16lf1937.h"
   260                           SP1BRGL equ 019Bh ;# 
   261  019B                     # 3796 "C:\Program Files (x86)\Microchip\xc8\v2.00\pic\include\pic16lf1937.h"
   262                           SPBRG equ 019Bh ;# 
   263  019B                     # 3800 "C:\Program Files (x86)\Microchip\xc8\v2.00\pic\include\pic16lf1937.h"
   264                           SPBRGL equ 019Bh ;# 
   265  019B                     # 3845 "C:\Program Files (x86)\Microchip\xc8\v2.00\pic\include\pic16lf1937.h"
   266                           SP1BRGH equ 019Ch ;# 
   267  019C                     # 3850 "C:\Program Files (x86)\Microchip\xc8\v2.00\pic\include\pic16lf1937.h"
   268                           SPBRGH equ 019Ch ;# 
   269  019C                     # 3883 "C:\Program Files (x86)\Microchip\xc8\v2.00\pic\include\pic16lf1937.h"
   270                           RCSTA equ 019Dh ;# 
   271  019D                     # 3945 "C:\Program Files (x86)\Microchip\xc8\v2.00\pic\include\pic16lf1937.h"
   272                           TXSTA equ 019Eh ;# 
   273  019E                     # 4007 "C:\Program Files (x86)\Microchip\xc8\v2.00\pic\include\pic16lf1937.h"
   274                           BAUDCON equ 019Fh ;# 
   275  019F                     # 4059 "C:\Program Files (x86)\Microchip\xc8\v2.00\pic\include\pic16lf1937.h"
   276                           WPUB equ 020Dh ;# 
   277  020D                     # 4129 "C:\Program Files (x86)\Microchip\xc8\v2.00\pic\include\pic16lf1937.h"
   278                           WPUE equ 0210h ;# 
   279  0210                     # 4150 "C:\Program Files (x86)\Microchip\xc8\v2.00\pic\include\pic16lf1937.h"
   280                           SSPBUF equ 0211h ;# 
   281  0211                     # 4170 "C:\Program Files (x86)\Microchip\xc8\v2.00\pic\include\pic16lf1937.h"
   282                           SSPADD equ 0212h ;# 
   283  0212                     # 4190 "C:\Program Files (x86)\Microchip\xc8\v2.00\pic\include\pic16lf1937.h"
   284                           SSPMSK equ 0213h ;# 
   285  0213                     # 4210 "C:\Program Files (x86)\Microchip\xc8\v2.00\pic\include\pic16lf1937.h"
   286                           SSPSTAT equ 0214h ;# 
   287  0214                     # 4272 "C:\Program Files (x86)\Microchip\xc8\v2.00\pic\include\pic16lf1937.h"
   288                           SSPCON1 equ 0215h ;# 
   289  0215                     # 4277 "C:\Program Files (x86)\Microchip\xc8\v2.00\pic\include\pic16lf1937.h"
   290                           SSPCON equ 0215h ;# 
   291  0215                     # 4394 "C:\Program Files (x86)\Microchip\xc8\v2.00\pic\include\pic16lf1937.h"
   292                           SSPCON2 equ 0216h ;# 
   293  0216                     # 4456 "C:\Program Files (x86)\Microchip\xc8\v2.00\pic\include\pic16lf1937.h"
   294                           SSPCON3 equ 0217h ;# 
   295  0217                     # 4518 "C:\Program Files (x86)\Microchip\xc8\v2.00\pic\include\pic16lf1937.h"
   296                           CCPR1 equ 0291h ;# 
   297  0291                     # 4525 "C:\Program Files (x86)\Microchip\xc8\v2.00\pic\include\pic16lf1937.h"
   298                           CCPR1L equ 0291h ;# 
   299  0291                     # 4545 "C:\Program Files (x86)\Microchip\xc8\v2.00\pic\include\pic16lf1937.h"
   300                           CCPR1H equ 0292h ;# 
   301  0292                     # 4565 "C:\Program Files (x86)\Microchip\xc8\v2.00\pic\include\pic16lf1937.h"
   302                           CCP1CON equ 0293h ;# 
   303  0293                     # 4647 "C:\Program Files (x86)\Microchip\xc8\v2.00\pic\include\pic16lf1937.h"
   304                           PWM1CON equ 0294h ;# 
   305  0294                     # 4709 "C:\Program Files (x86)\Microchip\xc8\v2.00\pic\include\pic16lf1937.h"
   306                           CCP1AS equ 0295h ;# 
   307  0295                     # 4714 "C:\Program Files (x86)\Microchip\xc8\v2.00\pic\include\pic16lf1937.h"
   308                           ECCP1AS equ 0295h ;# 
   309  0295                     # 4831 "C:\Program Files (x86)\Microchip\xc8\v2.00\pic\include\pic16lf1937.h"
   310                           PSTR1CON equ 0296h ;# 
   311  0296                     # 4875 "C:\Program Files (x86)\Microchip\xc8\v2.00\pic\include\pic16lf1937.h"
   312                           CCPR2 equ 0298h ;# 
   313  0298                     # 4882 "C:\Program Files (x86)\Microchip\xc8\v2.00\pic\include\pic16lf1937.h"
   314                           CCPR2L equ 0298h ;# 
   315  0298                     # 4902 "C:\Program Files (x86)\Microchip\xc8\v2.00\pic\include\pic16lf1937.h"
   316                           CCPR2H equ 0299h ;# 
   317  0299                     # 4922 "C:\Program Files (x86)\Microchip\xc8\v2.00\pic\include\pic16lf1937.h"
   318                           CCP2CON equ 029Ah ;# 
   319  029A                     # 5004 "C:\Program Files (x86)\Microchip\xc8\v2.00\pic\include\pic16lf1937.h"
   320                           PWM2CON equ 029Bh ;# 
   321  029B                     # 5066 "C:\Program Files (x86)\Microchip\xc8\v2.00\pic\include\pic16lf1937.h"
   322                           CCP2AS equ 029Ch ;# 
   323  029C                     # 5071 "C:\Program Files (x86)\Microchip\xc8\v2.00\pic\include\pic16lf1937.h"
   324                           ECCP2AS equ 029Ch ;# 
   325  029C                     # 5188 "C:\Program Files (x86)\Microchip\xc8\v2.00\pic\include\pic16lf1937.h"
   326                           PSTR2CON equ 029Dh ;# 
   327  029D                     # 5232 "C:\Program Files (x86)\Microchip\xc8\v2.00\pic\include\pic16lf1937.h"
   328                           CCPTMRS0 equ 029Eh ;# 
   329  029E                     # 5320 "C:\Program Files (x86)\Microchip\xc8\v2.00\pic\include\pic16lf1937.h"
   330                           CCPTMRS1 equ 029Fh ;# 
   331  029F                     # 5354 "C:\Program Files (x86)\Microchip\xc8\v2.00\pic\include\pic16lf1937.h"
   332                           CCPR3 equ 0311h ;# 
   333  0311                     # 5361 "C:\Program Files (x86)\Microchip\xc8\v2.00\pic\include\pic16lf1937.h"
   334                           CCPR3L equ 0311h ;# 
   335  0311                     # 5381 "C:\Program Files (x86)\Microchip\xc8\v2.00\pic\include\pic16lf1937.h"
   336                           CCPR3H equ 0312h ;# 
   337  0312                     # 5401 "C:\Program Files (x86)\Microchip\xc8\v2.00\pic\include\pic16lf1937.h"
   338                           CCP3CON equ 0313h ;# 
   339  0313                     # 5483 "C:\Program Files (x86)\Microchip\xc8\v2.00\pic\include\pic16lf1937.h"
   340                           PWM3CON equ 0314h ;# 
   341  0314                     # 5545 "C:\Program Files (x86)\Microchip\xc8\v2.00\pic\include\pic16lf1937.h"
   342                           CCP3AS equ 0315h ;# 
   343  0315                     # 5550 "C:\Program Files (x86)\Microchip\xc8\v2.00\pic\include\pic16lf1937.h"
   344                           ECCP3AS equ 0315h ;# 
   345  0315                     # 5667 "C:\Program Files (x86)\Microchip\xc8\v2.00\pic\include\pic16lf1937.h"
   346                           PSTR3CON equ 0316h ;# 
   347  0316                     # 5711 "C:\Program Files (x86)\Microchip\xc8\v2.00\pic\include\pic16lf1937.h"
   348                           CCPR4 equ 0318h ;# 
   349  0318                     # 5718 "C:\Program Files (x86)\Microchip\xc8\v2.00\pic\include\pic16lf1937.h"
   350                           CCPR4L equ 0318h ;# 
   351  0318                     # 5738 "C:\Program Files (x86)\Microchip\xc8\v2.00\pic\include\pic16lf1937.h"
   352                           CCPR4H equ 0319h ;# 
   353  0319                     # 5758 "C:\Program Files (x86)\Microchip\xc8\v2.00\pic\include\pic16lf1937.h"
   354                           CCP4CON equ 031Ah ;# 
   355  031A                     # 5822 "C:\Program Files (x86)\Microchip\xc8\v2.00\pic\include\pic16lf1937.h"
   356                           CCPR5 equ 031Ch ;# 
   357  031C                     # 5829 "C:\Program Files (x86)\Microchip\xc8\v2.00\pic\include\pic16lf1937.h"
   358                           CCPR5L equ 031Ch ;# 
   359  031C                     # 5849 "C:\Program Files (x86)\Microchip\xc8\v2.00\pic\include\pic16lf1937.h"
   360                           CCPR5H equ 031Dh ;# 
   361  031D                     # 5869 "C:\Program Files (x86)\Microchip\xc8\v2.00\pic\include\pic16lf1937.h"
   362                           CCP5CON equ 031Eh ;# 
   363  031E                     # 5933 "C:\Program Files (x86)\Microchip\xc8\v2.00\pic\include\pic16lf1937.h"
   364                           IOCBP equ 0394h ;# 
   365  0394                     # 6003 "C:\Program Files (x86)\Microchip\xc8\v2.00\pic\include\pic16lf1937.h"
   366                           IOCBN equ 0395h ;# 
   367  0395                     # 6073 "C:\Program Files (x86)\Microchip\xc8\v2.00\pic\include\pic16lf1937.h"
   368                           IOCBF equ 0396h ;# 
   369  0396                     # 6143 "C:\Program Files (x86)\Microchip\xc8\v2.00\pic\include\pic16lf1937.h"
   370                           TMR4 equ 0415h ;# 
   371  0415                     # 6163 "C:\Program Files (x86)\Microchip\xc8\v2.00\pic\include\pic16lf1937.h"
   372                           PR4 equ 0416h ;# 
   373  0416                     # 6183 "C:\Program Files (x86)\Microchip\xc8\v2.00\pic\include\pic16lf1937.h"
   374                           T4CON equ 0417h ;# 
   375  0417                     # 6254 "C:\Program Files (x86)\Microchip\xc8\v2.00\pic\include\pic16lf1937.h"
   376                           TMR6 equ 041Ch ;# 
   377  041C                     # 6274 "C:\Program Files (x86)\Microchip\xc8\v2.00\pic\include\pic16lf1937.h"
   378                           PR6 equ 041Dh ;# 
   379  041D                     # 6294 "C:\Program Files (x86)\Microchip\xc8\v2.00\pic\include\pic16lf1937.h"
   380                           T6CON equ 041Eh ;# 
   381  041E                     # 6365 "C:\Program Files (x86)\Microchip\xc8\v2.00\pic\include\pic16lf1937.h"
   382                           LCDCON equ 0791h ;# 
   383  0791                     # 6436 "C:\Program Files (x86)\Microchip\xc8\v2.00\pic\include\pic16lf1937.h"
   384                           LCDPS equ 0792h ;# 
   385  0792                     # 6506 "C:\Program Files (x86)\Microchip\xc8\v2.00\pic\include\pic16lf1937.h"
   386                           LCDREF equ 0793h ;# 
   387  0793                     # 6558 "C:\Program Files (x86)\Microchip\xc8\v2.00\pic\include\pic16lf1937.h"
   388                           LCDCST equ 0794h ;# 
   389  0794                     # 6598 "C:\Program Files (x86)\Microchip\xc8\v2.00\pic\include\pic16lf1937.h"
   390                           LCDRL equ 0795h ;# 
   391  0795                     # 6676 "C:\Program Files (x86)\Microchip\xc8\v2.00\pic\include\pic16lf1937.h"
   392                           LCDSE0 equ 0798h ;# 
   393  0798                     # 6738 "C:\Program Files (x86)\Microchip\xc8\v2.00\pic\include\pic16lf1937.h"
   394                           LCDSE1 equ 0799h ;# 
   395  0799                     # 6800 "C:\Program Files (x86)\Microchip\xc8\v2.00\pic\include\pic16lf1937.h"
   396                           LCDSE2 equ 079Ah ;# 
   397  079A                     # 6862 "C:\Program Files (x86)\Microchip\xc8\v2.00\pic\include\pic16lf1937.h"
   398                           LCDDATA0 equ 07A0h ;# 
   399  07A0                     # 6924 "C:\Program Files (x86)\Microchip\xc8\v2.00\pic\include\pic16lf1937.h"
   400                           LCDDATA1 equ 07A1h ;# 
   401  07A1                     # 6986 "C:\Program Files (x86)\Microchip\xc8\v2.00\pic\include\pic16lf1937.h"
   402                           LCDDATA2 equ 07A2h ;# 
   403  07A2                     # 7048 "C:\Program Files (x86)\Microchip\xc8\v2.00\pic\include\pic16lf1937.h"
   404                           LCDDATA3 equ 07A3h ;# 
   405  07A3                     # 7110 "C:\Program Files (x86)\Microchip\xc8\v2.00\pic\include\pic16lf1937.h"
   406                           LCDDATA4 equ 07A4h ;# 
   407  07A4                     # 7172 "C:\Program Files (x86)\Microchip\xc8\v2.00\pic\include\pic16lf1937.h"
   408                           LCDDATA5 equ 07A5h ;# 
   409  07A5                     # 7234 "C:\Program Files (x86)\Microchip\xc8\v2.00\pic\include\pic16lf1937.h"
   410                           LCDDATA6 equ 07A6h ;# 
   411  07A6                     # 7296 "C:\Program Files (x86)\Microchip\xc8\v2.00\pic\include\pic16lf1937.h"
   412                           LCDDATA7 equ 07A7h ;# 
   413  07A7                     # 7358 "C:\Program Files (x86)\Microchip\xc8\v2.00\pic\include\pic16lf1937.h"
   414                           LCDDATA8 equ 07A8h ;# 
   415  07A8                     # 7420 "C:\Program Files (x86)\Microchip\xc8\v2.00\pic\include\pic16lf1937.h"
   416                           LCDDATA9 equ 07A9h ;# 
   417  07A9                     # 7482 "C:\Program Files (x86)\Microchip\xc8\v2.00\pic\include\pic16lf1937.h"
   418                           LCDDATA10 equ 07AAh ;# 
   419  07AA                     # 7544 "C:\Program Files (x86)\Microchip\xc8\v2.00\pic\include\pic16lf1937.h"
   420                           LCDDATA11 equ 07ABh ;# 
   421  07AB                     # 7606 "C:\Program Files (x86)\Microchip\xc8\v2.00\pic\include\pic16lf1937.h"
   422                           STATUS_SHAD equ 0FE4h ;# 
   423  0FE4                     # 7638 "C:\Program Files (x86)\Microchip\xc8\v2.00\pic\include\pic16lf1937.h"
   424                           WREG_SHAD equ 0FE5h ;# 
   425  0FE5                     # 7658 "C:\Program Files (x86)\Microchip\xc8\v2.00\pic\include\pic16lf1937.h"
   426                           BSR_SHAD equ 0FE6h ;# 
   427  0FE6                     # 7678 "C:\Program Files (x86)\Microchip\xc8\v2.00\pic\include\pic16lf1937.h"
   428                           PCLATH_SHAD equ 0FE7h ;# 
   429  0FE7                     # 7698 "C:\Program Files (x86)\Microchip\xc8\v2.00\pic\include\pic16lf1937.h"
   430                           FSR0L_SHAD equ 0FE8h ;# 
   431  0FE8                     # 7718 "C:\Program Files (x86)\Microchip\xc8\v2.00\pic\include\pic16lf1937.h"
   432                           FSR0H_SHAD equ 0FE9h ;# 
   433  0FE9                     # 7738 "C:\Program Files (x86)\Microchip\xc8\v2.00\pic\include\pic16lf1937.h"
   434                           FSR1L_SHAD equ 0FEAh ;# 
   435  0FEA                     # 7758 "C:\Program Files (x86)\Microchip\xc8\v2.00\pic\include\pic16lf1937.h"
   436                           FSR1H_SHAD equ 0FEBh ;# 
   437  0FEB                     # 7778 "C:\Program Files (x86)\Microchip\xc8\v2.00\pic\include\pic16lf1937.h"
   438                           STKPTR equ 0FEDh ;# 
   439  0FED                     # 7798 "C:\Program Files (x86)\Microchip\xc8\v2.00\pic\include\pic16lf1937.h"
   440                           TOSL equ 0FEEh ;# 
   441  0FEE                     # 7818 "C:\Program Files (x86)\Microchip\xc8\v2.00\pic\include\pic16lf1937.h"
   442                           TOSH equ 0FEFh ;# 
   443  0FEF                     # 54 "C:\Program Files (x86)\Microchip\xc8\v2.00\pic\include\pic16lf1937.h"
   444                           INDF0 equ 00h ;# 
   445  0000                     # 74 "C:\Program Files (x86)\Microchip\xc8\v2.00\pic\include\pic16lf1937.h"
   446                           INDF1 equ 01h ;# 
   447  0001                     # 94 "C:\Program Files (x86)\Microchip\xc8\v2.00\pic\include\pic16lf1937.h"
   448                           PCL equ 02h ;# 
   449  0002                     # 114 "C:\Program Files (x86)\Microchip\xc8\v2.00\pic\include\pic16lf1937.h"
   450                           STATUS equ 03h ;# 
   451  0003                     # 177 "C:\Program Files (x86)\Microchip\xc8\v2.00\pic\include\pic16lf1937.h"
   452                           FSR0L equ 04h ;# 
   453  0004                     # 197 "C:\Program Files (x86)\Microchip\xc8\v2.00\pic\include\pic16lf1937.h"
   454                           FSR0H equ 05h ;# 
   455  0005                     # 221 "C:\Program Files (x86)\Microchip\xc8\v2.00\pic\include\pic16lf1937.h"
   456                           FSR1L equ 06h ;# 
   457  0006                     # 241 "C:\Program Files (x86)\Microchip\xc8\v2.00\pic\include\pic16lf1937.h"
   458                           FSR1H equ 07h ;# 
   459  0007                     # 261 "C:\Program Files (x86)\Microchip\xc8\v2.00\pic\include\pic16lf1937.h"
   460                           BSR equ 08h ;# 
   461  0008                     # 313 "C:\Program Files (x86)\Microchip\xc8\v2.00\pic\include\pic16lf1937.h"
   462                           WREG equ 09h ;# 
   463  0009                     # 333 "C:\Program Files (x86)\Microchip\xc8\v2.00\pic\include\pic16lf1937.h"
   464                           PCLATH equ 0Ah ;# 
   465  000A                     # 353 "C:\Program Files (x86)\Microchip\xc8\v2.00\pic\include\pic16lf1937.h"
   466                           INTCON equ 0Bh ;# 
   467  000B                     # 431 "C:\Program Files (x86)\Microchip\xc8\v2.00\pic\include\pic16lf1937.h"
   468                           PORTA equ 0Ch ;# 
   469  000C                     # 493 "C:\Program Files (x86)\Microchip\xc8\v2.00\pic\include\pic16lf1937.h"
   470                           PORTB equ 0Dh ;# 
   471  000D                     # 555 "C:\Program Files (x86)\Microchip\xc8\v2.00\pic\include\pic16lf1937.h"
   472                           PORTC equ 0Eh ;# 
   473  000E                     # 617 "C:\Program Files (x86)\Microchip\xc8\v2.00\pic\include\pic16lf1937.h"
   474                           PORTD equ 0Fh ;# 
   475  000F                     # 679 "C:\Program Files (x86)\Microchip\xc8\v2.00\pic\include\pic16lf1937.h"
   476                           PORTE equ 010h ;# 
   477  0010                     # 717 "C:\Program Files (x86)\Microchip\xc8\v2.00\pic\include\pic16lf1937.h"
   478                           PIR1 equ 011h ;# 
   479  0011                     # 779 "C:\Program Files (x86)\Microchip\xc8\v2.00\pic\include\pic16lf1937.h"
   480                           PIR2 equ 012h ;# 
   481  0012                     # 836 "C:\Program Files (x86)\Microchip\xc8\v2.00\pic\include\pic16lf1937.h"
   482                           PIR3 equ 013h ;# 
   483  0013                     # 882 "C:\Program Files (x86)\Microchip\xc8\v2.00\pic\include\pic16lf1937.h"
   484                           TMR0 equ 015h ;# 
   485  0015                     # 902 "C:\Program Files (x86)\Microchip\xc8\v2.00\pic\include\pic16lf1937.h"
   486                           TMR1 equ 016h ;# 
   487  0016                     # 909 "C:\Program Files (x86)\Microchip\xc8\v2.00\pic\include\pic16lf1937.h"
   488                           TMR1L equ 016h ;# 
   489  0016                     # 929 "C:\Program Files (x86)\Microchip\xc8\v2.00\pic\include\pic16lf1937.h"
   490                           TMR1H equ 017h ;# 
   491  0017                     # 949 "C:\Program Files (x86)\Microchip\xc8\v2.00\pic\include\pic16lf1937.h"
   492                           T1CON equ 018h ;# 
   493  0018                     # 1021 "C:\Program Files (x86)\Microchip\xc8\v2.00\pic\include\pic16lf1937.h"
   494                           T1GCON equ 019h ;# 
   495  0019                     # 1098 "C:\Program Files (x86)\Microchip\xc8\v2.00\pic\include\pic16lf1937.h"
   496                           TMR2 equ 01Ah ;# 
   497  001A                     # 1118 "C:\Program Files (x86)\Microchip\xc8\v2.00\pic\include\pic16lf1937.h"
   498                           PR2 equ 01Bh ;# 
   499  001B                     # 1138 "C:\Program Files (x86)\Microchip\xc8\v2.00\pic\include\pic16lf1937.h"
   500                           T2CON equ 01Ch ;# 
   501  001C                     # 1209 "C:\Program Files (x86)\Microchip\xc8\v2.00\pic\include\pic16lf1937.h"
   502                           CPSCON0 equ 01Eh ;# 
   503  001E                     # 1263 "C:\Program Files (x86)\Microchip\xc8\v2.00\pic\include\pic16lf1937.h"
   504                           CPSCON1 equ 01Fh ;# 
   505  001F                     # 1309 "C:\Program Files (x86)\Microchip\xc8\v2.00\pic\include\pic16lf1937.h"
   506                           TRISA equ 08Ch ;# 
   507  008C                     # 1371 "C:\Program Files (x86)\Microchip\xc8\v2.00\pic\include\pic16lf1937.h"
   508                           TRISB equ 08Dh ;# 
   509  008D                     # 1433 "C:\Program Files (x86)\Microchip\xc8\v2.00\pic\include\pic16lf1937.h"
   510                           TRISC equ 08Eh ;# 
   511  008E                     # 1495 "C:\Program Files (x86)\Microchip\xc8\v2.00\pic\include\pic16lf1937.h"
   512                           TRISD equ 08Fh ;# 
   513  008F                     # 1557 "C:\Program Files (x86)\Microchip\xc8\v2.00\pic\include\pic16lf1937.h"
   514                           TRISE equ 090h ;# 
   515  0090                     # 1595 "C:\Program Files (x86)\Microchip\xc8\v2.00\pic\include\pic16lf1937.h"
   516                           PIE1 equ 091h ;# 
   517  0091                     # 1657 "C:\Program Files (x86)\Microchip\xc8\v2.00\pic\include\pic16lf1937.h"
   518                           PIE2 equ 092h ;# 
   519  0092                     # 1714 "C:\Program Files (x86)\Microchip\xc8\v2.00\pic\include\pic16lf1937.h"
   520                           PIE3 equ 093h ;# 
   521  0093                     # 1760 "C:\Program Files (x86)\Microchip\xc8\v2.00\pic\include\pic16lf1937.h"
   522                           OPTION_REG equ 095h ;# 
   523  0095                     # 1843 "C:\Program Files (x86)\Microchip\xc8\v2.00\pic\include\pic16lf1937.h"
   524                           PCON equ 096h ;# 
   525  0096                     # 1894 "C:\Program Files (x86)\Microchip\xc8\v2.00\pic\include\pic16lf1937.h"
   526                           WDTCON equ 097h ;# 
   527  0097                     # 1953 "C:\Program Files (x86)\Microchip\xc8\v2.00\pic\include\pic16lf1937.h"
   528                           OSCTUNE equ 098h ;# 
   529  0098                     # 2011 "C:\Program Files (x86)\Microchip\xc8\v2.00\pic\include\pic16lf1937.h"
   530                           OSCCON equ 099h ;# 
   531  0099                     # 2083 "C:\Program Files (x86)\Microchip\xc8\v2.00\pic\include\pic16lf1937.h"
   532                           OSCSTAT equ 09Ah ;# 
   533  009A                     # 2145 "C:\Program Files (x86)\Microchip\xc8\v2.00\pic\include\pic16lf1937.h"
   534                           ADRES equ 09Bh ;# 
   535  009B                     # 2152 "C:\Program Files (x86)\Microchip\xc8\v2.00\pic\include\pic16lf1937.h"
   536                           ADRESL equ 09Bh ;# 
   537  009B                     # 2172 "C:\Program Files (x86)\Microchip\xc8\v2.00\pic\include\pic16lf1937.h"
   538                           ADRESH equ 09Ch ;# 
   539  009C                     # 2192 "C:\Program Files (x86)\Microchip\xc8\v2.00\pic\include\pic16lf1937.h"
   540                           ADCON0 equ 09Dh ;# 
   541  009D                     # 2281 "C:\Program Files (x86)\Microchip\xc8\v2.00\pic\include\pic16lf1937.h"
   542                           ADCON1 equ 09Eh ;# 
   543  009E                     # 2353 "C:\Program Files (x86)\Microchip\xc8\v2.00\pic\include\pic16lf1937.h"
   544                           LATA equ 010Ch ;# 
   545  010C                     # 2415 "C:\Program Files (x86)\Microchip\xc8\v2.00\pic\include\pic16lf1937.h"
   546                           LATB equ 010Dh ;# 
   547  010D                     # 2477 "C:\Program Files (x86)\Microchip\xc8\v2.00\pic\include\pic16lf1937.h"
   548                           LATC equ 010Eh ;# 
   549  010E                     # 2539 "C:\Program Files (x86)\Microchip\xc8\v2.00\pic\include\pic16lf1937.h"
   550                           LATD equ 010Fh ;# 
   551  010F                     # 2609 "C:\Program Files (x86)\Microchip\xc8\v2.00\pic\include\pic16lf1937.h"
   552                           LATE equ 0110h ;# 
   553  0110                     # 2647 "C:\Program Files (x86)\Microchip\xc8\v2.00\pic\include\pic16lf1937.h"
   554                           CM1CON0 equ 0111h ;# 
   555  0111                     # 2704 "C:\Program Files (x86)\Microchip\xc8\v2.00\pic\include\pic16lf1937.h"
   556                           CM1CON1 equ 0112h ;# 
   557  0112                     # 2770 "C:\Program Files (x86)\Microchip\xc8\v2.00\pic\include\pic16lf1937.h"
   558                           CM2CON0 equ 0113h ;# 
   559  0113                     # 2827 "C:\Program Files (x86)\Microchip\xc8\v2.00\pic\include\pic16lf1937.h"
   560                           CM2CON1 equ 0114h ;# 
   561  0114                     # 2893 "C:\Program Files (x86)\Microchip\xc8\v2.00\pic\include\pic16lf1937.h"
   562                           CMOUT equ 0115h ;# 
   563  0115                     # 2919 "C:\Program Files (x86)\Microchip\xc8\v2.00\pic\include\pic16lf1937.h"
   564                           BORCON equ 0116h ;# 
   565  0116                     # 2946 "C:\Program Files (x86)\Microchip\xc8\v2.00\pic\include\pic16lf1937.h"
   566                           FVRCON equ 0117h ;# 
   567  0117                     # 3022 "C:\Program Files (x86)\Microchip\xc8\v2.00\pic\include\pic16lf1937.h"
   568                           DACCON0 equ 0118h ;# 
   569  0118                     # 3083 "C:\Program Files (x86)\Microchip\xc8\v2.00\pic\include\pic16lf1937.h"
   570                           DACCON1 equ 0119h ;# 
   571  0119                     # 3135 "C:\Program Files (x86)\Microchip\xc8\v2.00\pic\include\pic16lf1937.h"
   572                           SRCON0 equ 011Ah ;# 
   573  011A                     # 3206 "C:\Program Files (x86)\Microchip\xc8\v2.00\pic\include\pic16lf1937.h"
   574                           SRCON1 equ 011Bh ;# 
   575  011B                     # 3268 "C:\Program Files (x86)\Microchip\xc8\v2.00\pic\include\pic16lf1937.h"
   576                           APFCON equ 011Dh ;# 
   577  011D                     # 3324 "C:\Program Files (x86)\Microchip\xc8\v2.00\pic\include\pic16lf1937.h"
   578                           ANSELA equ 018Ch ;# 
   579  018C                     # 3382 "C:\Program Files (x86)\Microchip\xc8\v2.00\pic\include\pic16lf1937.h"
   580                           ANSELB equ 018Dh ;# 
   581  018D                     # 3440 "C:\Program Files (x86)\Microchip\xc8\v2.00\pic\include\pic16lf1937.h"
   582                           ANSELD equ 018Fh ;# 
   583  018F                     # 3510 "C:\Program Files (x86)\Microchip\xc8\v2.00\pic\include\pic16lf1937.h"
   584                           ANSELE equ 0190h ;# 
   585  0190                     # 3550 "C:\Program Files (x86)\Microchip\xc8\v2.00\pic\include\pic16lf1937.h"
   586                           EEADR equ 0191h ;# 
   587  0191                     # 3557 "C:\Program Files (x86)\Microchip\xc8\v2.00\pic\include\pic16lf1937.h"
   588                           EEADRL equ 0191h ;# 
   589  0191                     # 3577 "C:\Program Files (x86)\Microchip\xc8\v2.00\pic\include\pic16lf1937.h"
   590                           EEADRH equ 0192h ;# 
   591  0192                     # 3597 "C:\Program Files (x86)\Microchip\xc8\v2.00\pic\include\pic16lf1937.h"
   592                           EEDAT equ 0193h ;# 
   593  0193                     # 3604 "C:\Program Files (x86)\Microchip\xc8\v2.00\pic\include\pic16lf1937.h"
   594                           EEDATL equ 0193h ;# 
   595  0193                     # 3609 "C:\Program Files (x86)\Microchip\xc8\v2.00\pic\include\pic16lf1937.h"
   596                           EEDATA equ 0193h ;# 
   597  0193                     # 3642 "C:\Program Files (x86)\Microchip\xc8\v2.00\pic\include\pic16lf1937.h"
   598                           EEDATH equ 0194h ;# 
   599  0194                     # 3662 "C:\Program Files (x86)\Microchip\xc8\v2.00\pic\include\pic16lf1937.h"
   600                           EECON1 equ 0195h ;# 
   601  0195                     # 3724 "C:\Program Files (x86)\Microchip\xc8\v2.00\pic\include\pic16lf1937.h"
   602                           EECON2 equ 0196h ;# 
   603  0196                     # 3744 "C:\Program Files (x86)\Microchip\xc8\v2.00\pic\include\pic16lf1937.h"
   604                           RCREG equ 0199h ;# 
   605  0199                     # 3764 "C:\Program Files (x86)\Microchip\xc8\v2.00\pic\include\pic16lf1937.h"
   606                           TXREG equ 019Ah ;# 
   607  019A                     # 3784 "C:\Program Files (x86)\Microchip\xc8\v2.00\pic\include\pic16lf1937.h"
   608                           SP1BRG equ 019Bh ;# 
   609  019B                     # 3791 "C:\Program Files (x86)\Microchip\xc8\v2.00\pic\include\pic16lf1937.h"
   610                           SP1BRGL equ 019Bh ;# 
   611  019B                     # 3796 "C:\Program Files (x86)\Microchip\xc8\v2.00\pic\include\pic16lf1937.h"
   612                           SPBRG equ 019Bh ;# 
   613  019B                     # 3800 "C:\Program Files (x86)\Microchip\xc8\v2.00\pic\include\pic16lf1937.h"
   614                           SPBRGL equ 019Bh ;# 
   615  019B                     # 3845 "C:\Program Files (x86)\Microchip\xc8\v2.00\pic\include\pic16lf1937.h"
   616                           SP1BRGH equ 019Ch ;# 
   617  019C                     # 3850 "C:\Program Files (x86)\Microchip\xc8\v2.00\pic\include\pic16lf1937.h"
   618                           SPBRGH equ 019Ch ;# 
   619  019C                     # 3883 "C:\Program Files (x86)\Microchip\xc8\v2.00\pic\include\pic16lf1937.h"
   620                           RCSTA equ 019Dh ;# 
   621  019D                     # 3945 "C:\Program Files (x86)\Microchip\xc8\v2.00\pic\include\pic16lf1937.h"
   622                           TXSTA equ 019Eh ;# 
   623  019E                     # 4007 "C:\Program Files (x86)\Microchip\xc8\v2.00\pic\include\pic16lf1937.h"
   624                           BAUDCON equ 019Fh ;# 
   625  019F                     # 4059 "C:\Program Files (x86)\Microchip\xc8\v2.00\pic\include\pic16lf1937.h"
   626                           WPUB equ 020Dh ;# 
   627  020D                     # 4129 "C:\Program Files (x86)\Microchip\xc8\v2.00\pic\include\pic16lf1937.h"
   628                           WPUE equ 0210h ;# 
   629  0210                     # 4150 "C:\Program Files (x86)\Microchip\xc8\v2.00\pic\include\pic16lf1937.h"
   630                           SSPBUF equ 0211h ;# 
   631  0211                     # 4170 "C:\Program Files (x86)\Microchip\xc8\v2.00\pic\include\pic16lf1937.h"
   632                           SSPADD equ 0212h ;# 
   633  0212                     # 4190 "C:\Program Files (x86)\Microchip\xc8\v2.00\pic\include\pic16lf1937.h"
   634                           SSPMSK equ 0213h ;# 
   635  0213                     # 4210 "C:\Program Files (x86)\Microchip\xc8\v2.00\pic\include\pic16lf1937.h"
   636                           SSPSTAT equ 0214h ;# 
   637  0214                     # 4272 "C:\Program Files (x86)\Microchip\xc8\v2.00\pic\include\pic16lf1937.h"
   638                           SSPCON1 equ 0215h ;# 
   639  0215                     # 4277 "C:\Program Files (x86)\Microchip\xc8\v2.00\pic\include\pic16lf1937.h"
   640                           SSPCON equ 0215h ;# 
   641  0215                     # 4394 "C:\Program Files (x86)\Microchip\xc8\v2.00\pic\include\pic16lf1937.h"
   642                           SSPCON2 equ 0216h ;# 
   643  0216                     # 4456 "C:\Program Files (x86)\Microchip\xc8\v2.00\pic\include\pic16lf1937.h"
   644                           SSPCON3 equ 0217h ;# 
   645  0217                     # 4518 "C:\Program Files (x86)\Microchip\xc8\v2.00\pic\include\pic16lf1937.h"
   646                           CCPR1 equ 0291h ;# 
   647  0291                     # 4525 "C:\Program Files (x86)\Microchip\xc8\v2.00\pic\include\pic16lf1937.h"
   648                           CCPR1L equ 0291h ;# 
   649  0291                     # 4545 "C:\Program Files (x86)\Microchip\xc8\v2.00\pic\include\pic16lf1937.h"
   650                           CCPR1H equ 0292h ;# 
   651  0292                     # 4565 "C:\Program Files (x86)\Microchip\xc8\v2.00\pic\include\pic16lf1937.h"
   652                           CCP1CON equ 0293h ;# 
   653  0293                     # 4647 "C:\Program Files (x86)\Microchip\xc8\v2.00\pic\include\pic16lf1937.h"
   654                           PWM1CON equ 0294h ;# 
   655  0294                     # 4709 "C:\Program Files (x86)\Microchip\xc8\v2.00\pic\include\pic16lf1937.h"
   656                           CCP1AS equ 0295h ;# 
   657  0295                     # 4714 "C:\Program Files (x86)\Microchip\xc8\v2.00\pic\include\pic16lf1937.h"
   658                           ECCP1AS equ 0295h ;# 
   659  0295                     # 4831 "C:\Program Files (x86)\Microchip\xc8\v2.00\pic\include\pic16lf1937.h"
   660                           PSTR1CON equ 0296h ;# 
   661  0296                     # 4875 "C:\Program Files (x86)\Microchip\xc8\v2.00\pic\include\pic16lf1937.h"
   662                           CCPR2 equ 0298h ;# 
   663  0298                     # 4882 "C:\Program Files (x86)\Microchip\xc8\v2.00\pic\include\pic16lf1937.h"
   664                           CCPR2L equ 0298h ;# 
   665  0298                     # 4902 "C:\Program Files (x86)\Microchip\xc8\v2.00\pic\include\pic16lf1937.h"
   666                           CCPR2H equ 0299h ;# 
   667  0299                     # 4922 "C:\Program Files (x86)\Microchip\xc8\v2.00\pic\include\pic16lf1937.h"
   668                           CCP2CON equ 029Ah ;# 
   669  029A                     # 5004 "C:\Program Files (x86)\Microchip\xc8\v2.00\pic\include\pic16lf1937.h"
   670                           PWM2CON equ 029Bh ;# 
   671  029B                     # 5066 "C:\Program Files (x86)\Microchip\xc8\v2.00\pic\include\pic16lf1937.h"
   672                           CCP2AS equ 029Ch ;# 
   673  029C                     # 5071 "C:\Program Files (x86)\Microchip\xc8\v2.00\pic\include\pic16lf1937.h"
   674                           ECCP2AS equ 029Ch ;# 
   675  029C                     # 5188 "C:\Program Files (x86)\Microchip\xc8\v2.00\pic\include\pic16lf1937.h"
   676                           PSTR2CON equ 029Dh ;# 
   677  029D                     # 5232 "C:\Program Files (x86)\Microchip\xc8\v2.00\pic\include\pic16lf1937.h"
   678                           CCPTMRS0 equ 029Eh ;# 
   679  029E                     # 5320 "C:\Program Files (x86)\Microchip\xc8\v2.00\pic\include\pic16lf1937.h"
   680                           CCPTMRS1 equ 029Fh ;# 
   681  029F                     # 5354 "C:\Program Files (x86)\Microchip\xc8\v2.00\pic\include\pic16lf1937.h"
   682                           CCPR3 equ 0311h ;# 
   683  0311                     # 5361 "C:\Program Files (x86)\Microchip\xc8\v2.00\pic\include\pic16lf1937.h"
   684                           CCPR3L equ 0311h ;# 
   685  0311                     # 5381 "C:\Program Files (x86)\Microchip\xc8\v2.00\pic\include\pic16lf1937.h"
   686                           CCPR3H equ 0312h ;# 
   687  0312                     # 5401 "C:\Program Files (x86)\Microchip\xc8\v2.00\pic\include\pic16lf1937.h"
   688                           CCP3CON equ 0313h ;# 
   689  0313                     # 5483 "C:\Program Files (x86)\Microchip\xc8\v2.00\pic\include\pic16lf1937.h"
   690                           PWM3CON equ 0314h ;# 
   691  0314                     # 5545 "C:\Program Files (x86)\Microchip\xc8\v2.00\pic\include\pic16lf1937.h"
   692                           CCP3AS equ 0315h ;# 
   693  0315                     # 5550 "C:\Program Files (x86)\Microchip\xc8\v2.00\pic\include\pic16lf1937.h"
   694                           ECCP3AS equ 0315h ;# 
   695  0315                     # 5667 "C:\Program Files (x86)\Microchip\xc8\v2.00\pic\include\pic16lf1937.h"
   696                           PSTR3CON equ 0316h ;# 
   697  0316                     # 5711 "C:\Program Files (x86)\Microchip\xc8\v2.00\pic\include\pic16lf1937.h"
   698                           CCPR4 equ 0318h ;# 
   699  0318                     # 5718 "C:\Program Files (x86)\Microchip\xc8\v2.00\pic\include\pic16lf1937.h"
   700                           CCPR4L equ 0318h ;# 
   701  0318                     # 5738 "C:\Program Files (x86)\Microchip\xc8\v2.00\pic\include\pic16lf1937.h"
   702                           CCPR4H equ 0319h ;# 
   703  0319                     # 5758 "C:\Program Files (x86)\Microchip\xc8\v2.00\pic\include\pic16lf1937.h"
   704                           CCP4CON equ 031Ah ;# 
   705  031A                     # 5822 "C:\Program Files (x86)\Microchip\xc8\v2.00\pic\include\pic16lf1937.h"
   706                           CCPR5 equ 031Ch ;# 
   707  031C                     # 5829 "C:\Program Files (x86)\Microchip\xc8\v2.00\pic\include\pic16lf1937.h"
   708                           CCPR5L equ 031Ch ;# 
   709  031C                     # 5849 "C:\Program Files (x86)\Microchip\xc8\v2.00\pic\include\pic16lf1937.h"
   710                           CCPR5H equ 031Dh ;# 
   711  031D                     # 5869 "C:\Program Files (x86)\Microchip\xc8\v2.00\pic\include\pic16lf1937.h"
   712                           CCP5CON equ 031Eh ;# 
   713  031E                     # 5933 "C:\Program Files (x86)\Microchip\xc8\v2.00\pic\include\pic16lf1937.h"
   714                           IOCBP equ 0394h ;# 
   715  0394                     # 6003 "C:\Program Files (x86)\Microchip\xc8\v2.00\pic\include\pic16lf1937.h"
   716                           IOCBN equ 0395h ;# 
   717  0395                     # 6073 "C:\Program Files (x86)\Microchip\xc8\v2.00\pic\include\pic16lf1937.h"
   718                           IOCBF equ 0396h ;# 
   719  0396                     # 6143 "C:\Program Files (x86)\Microchip\xc8\v2.00\pic\include\pic16lf1937.h"
   720                           TMR4 equ 0415h ;# 
   721  0415                     # 6163 "C:\Program Files (x86)\Microchip\xc8\v2.00\pic\include\pic16lf1937.h"
   722                           PR4 equ 0416h ;# 
   723  0416                     # 6183 "C:\Program Files (x86)\Microchip\xc8\v2.00\pic\include\pic16lf1937.h"
   724                           T4CON equ 0417h ;# 
   725  0417                     # 6254 "C:\Program Files (x86)\Microchip\xc8\v2.00\pic\include\pic16lf1937.h"
   726                           TMR6 equ 041Ch ;# 
   727  041C                     # 6274 "C:\Program Files (x86)\Microchip\xc8\v2.00\pic\include\pic16lf1937.h"
   728                           PR6 equ 041Dh ;# 
   729  041D                     # 6294 "C:\Program Files (x86)\Microchip\xc8\v2.00\pic\include\pic16lf1937.h"
   730                           T6CON equ 041Eh ;# 
   731  041E                     # 6365 "C:\Program Files (x86)\Microchip\xc8\v2.00\pic\include\pic16lf1937.h"
   732                           LCDCON equ 0791h ;# 
   733  0791                     # 6436 "C:\Program Files (x86)\Microchip\xc8\v2.00\pic\include\pic16lf1937.h"
   734                           LCDPS equ 0792h ;# 
   735  0792                     # 6506 "C:\Program Files (x86)\Microchip\xc8\v2.00\pic\include\pic16lf1937.h"
   736                           LCDREF equ 0793h ;# 
   737  0793                     # 6558 "C:\Program Files (x86)\Microchip\xc8\v2.00\pic\include\pic16lf1937.h"
   738                           LCDCST equ 0794h ;# 
   739  0794                     # 6598 "C:\Program Files (x86)\Microchip\xc8\v2.00\pic\include\pic16lf1937.h"
   740                           LCDRL equ 0795h ;# 
   741  0795                     # 6676 "C:\Program Files (x86)\Microchip\xc8\v2.00\pic\include\pic16lf1937.h"
   742                           LCDSE0 equ 0798h ;# 
   743  0798                     # 6738 "C:\Program Files (x86)\Microchip\xc8\v2.00\pic\include\pic16lf1937.h"
   744                           LCDSE1 equ 0799h ;# 
   745  0799                     # 6800 "C:\Program Files (x86)\Microchip\xc8\v2.00\pic\include\pic16lf1937.h"
   746                           LCDSE2 equ 079Ah ;# 
   747  079A                     # 6862 "C:\Program Files (x86)\Microchip\xc8\v2.00\pic\include\pic16lf1937.h"
   748                           LCDDATA0 equ 07A0h ;# 
   749  07A0                     # 6924 "C:\Program Files (x86)\Microchip\xc8\v2.00\pic\include\pic16lf1937.h"
   750                           LCDDATA1 equ 07A1h ;# 
   751  07A1                     # 6986 "C:\Program Files (x86)\Microchip\xc8\v2.00\pic\include\pic16lf1937.h"
   752                           LCDDATA2 equ 07A2h ;# 
   753  07A2                     # 7048 "C:\Program Files (x86)\Microchip\xc8\v2.00\pic\include\pic16lf1937.h"
   754                           LCDDATA3 equ 07A3h ;# 
   755  07A3                     # 7110 "C:\Program Files (x86)\Microchip\xc8\v2.00\pic\include\pic16lf1937.h"
   756                           LCDDATA4 equ 07A4h ;# 
   757  07A4                     # 7172 "C:\Program Files (x86)\Microchip\xc8\v2.00\pic\include\pic16lf1937.h"
   758                           LCDDATA5 equ 07A5h ;# 
   759  07A5                     # 7234 "C:\Program Files (x86)\Microchip\xc8\v2.00\pic\include\pic16lf1937.h"
   760                           LCDDATA6 equ 07A6h ;# 
   761  07A6                     # 7296 "C:\Program Files (x86)\Microchip\xc8\v2.00\pic\include\pic16lf1937.h"
   762                           LCDDATA7 equ 07A7h ;# 
   763  07A7                     # 7358 "C:\Program Files (x86)\Microchip\xc8\v2.00\pic\include\pic16lf1937.h"
   764                           LCDDATA8 equ 07A8h ;# 
   765  07A8                     # 7420 "C:\Program Files (x86)\Microchip\xc8\v2.00\pic\include\pic16lf1937.h"
   766                           LCDDATA9 equ 07A9h ;# 
   767  07A9                     # 7482 "C:\Program Files (x86)\Microchip\xc8\v2.00\pic\include\pic16lf1937.h"
   768                           LCDDATA10 equ 07AAh ;# 
   769  07AA                     # 7544 "C:\Program Files (x86)\Microchip\xc8\v2.00\pic\include\pic16lf1937.h"
   770                           LCDDATA11 equ 07ABh ;# 
   771  07AB                     # 7606 "C:\Program Files (x86)\Microchip\xc8\v2.00\pic\include\pic16lf1937.h"
   772                           STATUS_SHAD equ 0FE4h ;# 
   773  0FE4                     # 7638 "C:\Program Files (x86)\Microchip\xc8\v2.00\pic\include\pic16lf1937.h"
   774                           WREG_SHAD equ 0FE5h ;# 
   775  0FE5                     # 7658 "C:\Program Files (x86)\Microchip\xc8\v2.00\pic\include\pic16lf1937.h"
   776                           BSR_SHAD equ 0FE6h ;# 
   777  0FE6                     # 7678 "C:\Program Files (x86)\Microchip\xc8\v2.00\pic\include\pic16lf1937.h"
   778                           PCLATH_SHAD equ 0FE7h ;# 
   779  0FE7                     # 7698 "C:\Program Files (x86)\Microchip\xc8\v2.00\pic\include\pic16lf1937.h"
   780                           FSR0L_SHAD equ 0FE8h ;# 
   781  0FE8                     # 7718 "C:\Program Files (x86)\Microchip\xc8\v2.00\pic\include\pic16lf1937.h"
   782                           FSR0H_SHAD equ 0FE9h ;# 
   783  0FE9                     # 7738 "C:\Program Files (x86)\Microchip\xc8\v2.00\pic\include\pic16lf1937.h"
   784                           FSR1L_SHAD equ 0FEAh ;# 
   785  0FEA                     # 7758 "C:\Program Files (x86)\Microchip\xc8\v2.00\pic\include\pic16lf1937.h"
   786                           FSR1H_SHAD equ 0FEBh ;# 
   787  0FEB                     # 7778 "C:\Program Files (x86)\Microchip\xc8\v2.00\pic\include\pic16lf1937.h"
   788                           STKPTR equ 0FEDh ;# 
   789  0FED                     # 7798 "C:\Program Files (x86)\Microchip\xc8\v2.00\pic\include\pic16lf1937.h"
   790                           TOSL equ 0FEEh ;# 
   791  0FEE                     # 7818 "C:\Program Files (x86)\Microchip\xc8\v2.00\pic\include\pic16lf1937.h"
   792                           TOSH equ 0FEFh ;# 
   793  0FEF                     # 54 "C:\Program Files (x86)\Microchip\xc8\v2.00\pic\include\pic16lf1937.h"
   794                           INDF0 equ 00h ;# 
   795  0000                     # 74 "C:\Program Files (x86)\Microchip\xc8\v2.00\pic\include\pic16lf1937.h"
   796                           INDF1 equ 01h ;# 
   797  0001                     # 94 "C:\Program Files (x86)\Microchip\xc8\v2.00\pic\include\pic16lf1937.h"
   798                           PCL equ 02h ;# 
   799  0002                     # 114 "C:\Program Files (x86)\Microchip\xc8\v2.00\pic\include\pic16lf1937.h"
   800                           STATUS equ 03h ;# 
   801  0003                     # 177 "C:\Program Files (x86)\Microchip\xc8\v2.00\pic\include\pic16lf1937.h"
   802                           FSR0L equ 04h ;# 
   803  0004                     # 197 "C:\Program Files (x86)\Microchip\xc8\v2.00\pic\include\pic16lf1937.h"
   804                           FSR0H equ 05h ;# 
   805  0005                     # 221 "C:\Program Files (x86)\Microchip\xc8\v2.00\pic\include\pic16lf1937.h"
   806                           FSR1L equ 06h ;# 
   807  0006                     # 241 "C:\Program Files (x86)\Microchip\xc8\v2.00\pic\include\pic16lf1937.h"
   808                           FSR1H equ 07h ;# 
   809  0007                     # 261 "C:\Program Files (x86)\Microchip\xc8\v2.00\pic\include\pic16lf1937.h"
   810                           BSR equ 08h ;# 
   811  0008                     # 313 "C:\Program Files (x86)\Microchip\xc8\v2.00\pic\include\pic16lf1937.h"
   812                           WREG equ 09h ;# 
   813  0009                     # 333 "C:\Program Files (x86)\Microchip\xc8\v2.00\pic\include\pic16lf1937.h"
   814                           PCLATH equ 0Ah ;# 
   815  000A                     # 353 "C:\Program Files (x86)\Microchip\xc8\v2.00\pic\include\pic16lf1937.h"
   816                           INTCON equ 0Bh ;# 
   817  000B                     # 431 "C:\Program Files (x86)\Microchip\xc8\v2.00\pic\include\pic16lf1937.h"
   818                           PORTA equ 0Ch ;# 
   819  000C                     # 493 "C:\Program Files (x86)\Microchip\xc8\v2.00\pic\include\pic16lf1937.h"
   820                           PORTB equ 0Dh ;# 
   821  000D                     # 555 "C:\Program Files (x86)\Microchip\xc8\v2.00\pic\include\pic16lf1937.h"
   822                           PORTC equ 0Eh ;# 
   823  000E                     # 617 "C:\Program Files (x86)\Microchip\xc8\v2.00\pic\include\pic16lf1937.h"
   824                           PORTD equ 0Fh ;# 
   825  000F                     # 679 "C:\Program Files (x86)\Microchip\xc8\v2.00\pic\include\pic16lf1937.h"
   826                           PORTE equ 010h ;# 
   827  0010                     # 717 "C:\Program Files (x86)\Microchip\xc8\v2.00\pic\include\pic16lf1937.h"
   828                           PIR1 equ 011h ;# 
   829  0011                     # 779 "C:\Program Files (x86)\Microchip\xc8\v2.00\pic\include\pic16lf1937.h"
   830                           PIR2 equ 012h ;# 
   831  0012                     # 836 "C:\Program Files (x86)\Microchip\xc8\v2.00\pic\include\pic16lf1937.h"
   832                           PIR3 equ 013h ;# 
   833  0013                     # 882 "C:\Program Files (x86)\Microchip\xc8\v2.00\pic\include\pic16lf1937.h"
   834                           TMR0 equ 015h ;# 
   835  0015                     # 902 "C:\Program Files (x86)\Microchip\xc8\v2.00\pic\include\pic16lf1937.h"
   836                           TMR1 equ 016h ;# 
   837  0016                     # 909 "C:\Program Files (x86)\Microchip\xc8\v2.00\pic\include\pic16lf1937.h"
   838                           TMR1L equ 016h ;# 
   839  0016                     # 929 "C:\Program Files (x86)\Microchip\xc8\v2.00\pic\include\pic16lf1937.h"
   840                           TMR1H equ 017h ;# 
   841  0017                     # 949 "C:\Program Files (x86)\Microchip\xc8\v2.00\pic\include\pic16lf1937.h"
   842                           T1CON equ 018h ;# 
   843  0018                     # 1021 "C:\Program Files (x86)\Microchip\xc8\v2.00\pic\include\pic16lf1937.h"
   844                           T1GCON equ 019h ;# 
   845  0019                     # 1098 "C:\Program Files (x86)\Microchip\xc8\v2.00\pic\include\pic16lf1937.h"
   846                           TMR2 equ 01Ah ;# 
   847  001A                     # 1118 "C:\Program Files (x86)\Microchip\xc8\v2.00\pic\include\pic16lf1937.h"
   848                           PR2 equ 01Bh ;# 
   849  001B                     # 1138 "C:\Program Files (x86)\Microchip\xc8\v2.00\pic\include\pic16lf1937.h"
   850                           T2CON equ 01Ch ;# 
   851  001C                     # 1209 "C:\Program Files (x86)\Microchip\xc8\v2.00\pic\include\pic16lf1937.h"
   852                           CPSCON0 equ 01Eh ;# 
   853  001E                     # 1263 "C:\Program Files (x86)\Microchip\xc8\v2.00\pic\include\pic16lf1937.h"
   854                           CPSCON1 equ 01Fh ;# 
   855  001F                     # 1309 "C:\Program Files (x86)\Microchip\xc8\v2.00\pic\include\pic16lf1937.h"
   856                           TRISA equ 08Ch ;# 
   857  008C                     # 1371 "C:\Program Files (x86)\Microchip\xc8\v2.00\pic\include\pic16lf1937.h"
   858                           TRISB equ 08Dh ;# 
   859  008D                     # 1433 "C:\Program Files (x86)\Microchip\xc8\v2.00\pic\include\pic16lf1937.h"
   860                           TRISC equ 08Eh ;# 
   861  008E                     # 1495 "C:\Program Files (x86)\Microchip\xc8\v2.00\pic\include\pic16lf1937.h"
   862                           TRISD equ 08Fh ;# 
   863  008F                     # 1557 "C:\Program Files (x86)\Microchip\xc8\v2.00\pic\include\pic16lf1937.h"
   864                           TRISE equ 090h ;# 
   865  0090                     # 1595 "C:\Program Files (x86)\Microchip\xc8\v2.00\pic\include\pic16lf1937.h"
   866                           PIE1 equ 091h ;# 
   867  0091                     # 1657 "C:\Program Files (x86)\Microchip\xc8\v2.00\pic\include\pic16lf1937.h"
   868                           PIE2 equ 092h ;# 
   869  0092                     # 1714 "C:\Program Files (x86)\Microchip\xc8\v2.00\pic\include\pic16lf1937.h"
   870                           PIE3 equ 093h ;# 
   871  0093                     # 1760 "C:\Program Files (x86)\Microchip\xc8\v2.00\pic\include\pic16lf1937.h"
   872                           OPTION_REG equ 095h ;# 
   873  0095                     # 1843 "C:\Program Files (x86)\Microchip\xc8\v2.00\pic\include\pic16lf1937.h"
   874                           PCON equ 096h ;# 
   875  0096                     # 1894 "C:\Program Files (x86)\Microchip\xc8\v2.00\pic\include\pic16lf1937.h"
   876                           WDTCON equ 097h ;# 
   877  0097                     # 1953 "C:\Program Files (x86)\Microchip\xc8\v2.00\pic\include\pic16lf1937.h"
   878                           OSCTUNE equ 098h ;# 
   879  0098                     # 2011 "C:\Program Files (x86)\Microchip\xc8\v2.00\pic\include\pic16lf1937.h"
   880                           OSCCON equ 099h ;# 
   881  0099                     # 2083 "C:\Program Files (x86)\Microchip\xc8\v2.00\pic\include\pic16lf1937.h"
   882                           OSCSTAT equ 09Ah ;# 
   883  009A                     # 2145 "C:\Program Files (x86)\Microchip\xc8\v2.00\pic\include\pic16lf1937.h"
   884                           ADRES equ 09Bh ;# 
   885  009B                     # 2152 "C:\Program Files (x86)\Microchip\xc8\v2.00\pic\include\pic16lf1937.h"
   886                           ADRESL equ 09Bh ;# 
   887  009B                     # 2172 "C:\Program Files (x86)\Microchip\xc8\v2.00\pic\include\pic16lf1937.h"
   888                           ADRESH equ 09Ch ;# 
   889  009C                     # 2192 "C:\Program Files (x86)\Microchip\xc8\v2.00\pic\include\pic16lf1937.h"
   890                           ADCON0 equ 09Dh ;# 
   891  009D                     # 2281 "C:\Program Files (x86)\Microchip\xc8\v2.00\pic\include\pic16lf1937.h"
   892                           ADCON1 equ 09Eh ;# 
   893  009E                     # 2353 "C:\Program Files (x86)\Microchip\xc8\v2.00\pic\include\pic16lf1937.h"
   894                           LATA equ 010Ch ;# 
   895  010C                     # 2415 "C:\Program Files (x86)\Microchip\xc8\v2.00\pic\include\pic16lf1937.h"
   896                           LATB equ 010Dh ;# 
   897  010D                     # 2477 "C:\Program Files (x86)\Microchip\xc8\v2.00\pic\include\pic16lf1937.h"
   898                           LATC equ 010Eh ;# 
   899  010E                     # 2539 "C:\Program Files (x86)\Microchip\xc8\v2.00\pic\include\pic16lf1937.h"
   900                           LATD equ 010Fh ;# 
   901  010F                     # 2609 "C:\Program Files (x86)\Microchip\xc8\v2.00\pic\include\pic16lf1937.h"
   902                           LATE equ 0110h ;# 
   903  0110                     # 2647 "C:\Program Files (x86)\Microchip\xc8\v2.00\pic\include\pic16lf1937.h"
   904                           CM1CON0 equ 0111h ;# 
   905  0111                     # 2704 "C:\Program Files (x86)\Microchip\xc8\v2.00\pic\include\pic16lf1937.h"
   906                           CM1CON1 equ 0112h ;# 
   907  0112                     # 2770 "C:\Program Files (x86)\Microchip\xc8\v2.00\pic\include\pic16lf1937.h"
   908                           CM2CON0 equ 0113h ;# 
   909  0113                     # 2827 "C:\Program Files (x86)\Microchip\xc8\v2.00\pic\include\pic16lf1937.h"
   910                           CM2CON1 equ 0114h ;# 
   911  0114                     # 2893 "C:\Program Files (x86)\Microchip\xc8\v2.00\pic\include\pic16lf1937.h"
   912                           CMOUT equ 0115h ;# 
   913  0115                     # 2919 "C:\Program Files (x86)\Microchip\xc8\v2.00\pic\include\pic16lf1937.h"
   914                           BORCON equ 0116h ;# 
   915  0116                     # 2946 "C:\Program Files (x86)\Microchip\xc8\v2.00\pic\include\pic16lf1937.h"
   916                           FVRCON equ 0117h ;# 
   917  0117                     # 3022 "C:\Program Files (x86)\Microchip\xc8\v2.00\pic\include\pic16lf1937.h"
   918                           DACCON0 equ 0118h ;# 
   919  0118                     # 3083 "C:\Program Files (x86)\Microchip\xc8\v2.00\pic\include\pic16lf1937.h"
   920                           DACCON1 equ 0119h ;# 
   921  0119                     # 3135 "C:\Program Files (x86)\Microchip\xc8\v2.00\pic\include\pic16lf1937.h"
   922                           SRCON0 equ 011Ah ;# 
   923  011A                     # 3206 "C:\Program Files (x86)\Microchip\xc8\v2.00\pic\include\pic16lf1937.h"
   924                           SRCON1 equ 011Bh ;# 
   925  011B                     # 3268 "C:\Program Files (x86)\Microchip\xc8\v2.00\pic\include\pic16lf1937.h"
   926                           APFCON equ 011Dh ;# 
   927  011D                     # 3324 "C:\Program Files (x86)\Microchip\xc8\v2.00\pic\include\pic16lf1937.h"
   928                           ANSELA equ 018Ch ;# 
   929  018C                     # 3382 "C:\Program Files (x86)\Microchip\xc8\v2.00\pic\include\pic16lf1937.h"
   930                           ANSELB equ 018Dh ;# 
   931  018D                     # 3440 "C:\Program Files (x86)\Microchip\xc8\v2.00\pic\include\pic16lf1937.h"
   932                           ANSELD equ 018Fh ;# 
   933  018F                     # 3510 "C:\Program Files (x86)\Microchip\xc8\v2.00\pic\include\pic16lf1937.h"
   934                           ANSELE equ 0190h ;# 
   935  0190                     # 3550 "C:\Program Files (x86)\Microchip\xc8\v2.00\pic\include\pic16lf1937.h"
   936                           EEADR equ 0191h ;# 
   937  0191                     # 3557 "C:\Program Files (x86)\Microchip\xc8\v2.00\pic\include\pic16lf1937.h"
   938                           EEADRL equ 0191h ;# 
   939  0191                     # 3577 "C:\Program Files (x86)\Microchip\xc8\v2.00\pic\include\pic16lf1937.h"
   940                           EEADRH equ 0192h ;# 
   941  0192                     # 3597 "C:\Program Files (x86)\Microchip\xc8\v2.00\pic\include\pic16lf1937.h"
   942                           EEDAT equ 0193h ;# 
   943  0193                     # 3604 "C:\Program Files (x86)\Microchip\xc8\v2.00\pic\include\pic16lf1937.h"
   944                           EEDATL equ 0193h ;# 
   945  0193                     # 3609 "C:\Program Files (x86)\Microchip\xc8\v2.00\pic\include\pic16lf1937.h"
   946                           EEDATA equ 0193h ;# 
   947  0193                     # 3642 "C:\Program Files (x86)\Microchip\xc8\v2.00\pic\include\pic16lf1937.h"
   948                           EEDATH equ 0194h ;# 
   949  0194                     # 3662 "C:\Program Files (x86)\Microchip\xc8\v2.00\pic\include\pic16lf1937.h"
   950                           EECON1 equ 0195h ;# 
   951  0195                     # 3724 "C:\Program Files (x86)\Microchip\xc8\v2.00\pic\include\pic16lf1937.h"
   952                           EECON2 equ 0196h ;# 
   953  0196                     # 3744 "C:\Program Files (x86)\Microchip\xc8\v2.00\pic\include\pic16lf1937.h"
   954                           RCREG equ 0199h ;# 
   955  0199                     # 3764 "C:\Program Files (x86)\Microchip\xc8\v2.00\pic\include\pic16lf1937.h"
   956                           TXREG equ 019Ah ;# 
   957  019A                     # 3784 "C:\Program Files (x86)\Microchip\xc8\v2.00\pic\include\pic16lf1937.h"
   958                           SP1BRG equ 019Bh ;# 
   959  019B                     # 3791 "C:\Program Files (x86)\Microchip\xc8\v2.00\pic\include\pic16lf1937.h"
   960                           SP1BRGL equ 019Bh ;# 
   961  019B                     # 3796 "C:\Program Files (x86)\Microchip\xc8\v2.00\pic\include\pic16lf1937.h"
   962                           SPBRG equ 019Bh ;# 
   963  019B                     # 3800 "C:\Program Files (x86)\Microchip\xc8\v2.00\pic\include\pic16lf1937.h"
   964                           SPBRGL equ 019Bh ;# 
   965  019B                     # 3845 "C:\Program Files (x86)\Microchip\xc8\v2.00\pic\include\pic16lf1937.h"
   966                           SP1BRGH equ 019Ch ;# 
   967  019C                     # 3850 "C:\Program Files (x86)\Microchip\xc8\v2.00\pic\include\pic16lf1937.h"
   968                           SPBRGH equ 019Ch ;# 
   969  019C                     # 3883 "C:\Program Files (x86)\Microchip\xc8\v2.00\pic\include\pic16lf1937.h"
   970                           RCSTA equ 019Dh ;# 
   971  019D                     # 3945 "C:\Program Files (x86)\Microchip\xc8\v2.00\pic\include\pic16lf1937.h"
   972                           TXSTA equ 019Eh ;# 
   973  019E                     # 4007 "C:\Program Files (x86)\Microchip\xc8\v2.00\pic\include\pic16lf1937.h"
   974                           BAUDCON equ 019Fh ;# 
   975  019F                     # 4059 "C:\Program Files (x86)\Microchip\xc8\v2.00\pic\include\pic16lf1937.h"
   976                           WPUB equ 020Dh ;# 
   977  020D                     # 4129 "C:\Program Files (x86)\Microchip\xc8\v2.00\pic\include\pic16lf1937.h"
   978                           WPUE equ 0210h ;# 
   979  0210                     # 4150 "C:\Program Files (x86)\Microchip\xc8\v2.00\pic\include\pic16lf1937.h"
   980                           SSPBUF equ 0211h ;# 
   981  0211                     # 4170 "C:\Program Files (x86)\Microchip\xc8\v2.00\pic\include\pic16lf1937.h"
   982                           SSPADD equ 0212h ;# 
   983  0212                     # 4190 "C:\Program Files (x86)\Microchip\xc8\v2.00\pic\include\pic16lf1937.h"
   984                           SSPMSK equ 0213h ;# 
   985  0213                     # 4210 "C:\Program Files (x86)\Microchip\xc8\v2.00\pic\include\pic16lf1937.h"
   986                           SSPSTAT equ 0214h ;# 
   987  0214                     # 4272 "C:\Program Files (x86)\Microchip\xc8\v2.00\pic\include\pic16lf1937.h"
   988                           SSPCON1 equ 0215h ;# 
   989  0215                     # 4277 "C:\Program Files (x86)\Microchip\xc8\v2.00\pic\include\pic16lf1937.h"
   990                           SSPCON equ 0215h ;# 
   991  0215                     # 4394 "C:\Program Files (x86)\Microchip\xc8\v2.00\pic\include\pic16lf1937.h"
   992                           SSPCON2 equ 0216h ;# 
   993  0216                     # 4456 "C:\Program Files (x86)\Microchip\xc8\v2.00\pic\include\pic16lf1937.h"
   994                           SSPCON3 equ 0217h ;# 
   995  0217                     # 4518 "C:\Program Files (x86)\Microchip\xc8\v2.00\pic\include\pic16lf1937.h"
   996                           CCPR1 equ 0291h ;# 
   997  0291                     # 4525 "C:\Program Files (x86)\Microchip\xc8\v2.00\pic\include\pic16lf1937.h"
   998                           CCPR1L equ 0291h ;# 
   999  0291                     # 4545 "C:\Program Files (x86)\Microchip\xc8\v2.00\pic\include\pic16lf1937.h"
  1000                           CCPR1H equ 0292h ;# 
  1001  0292                     # 4565 "C:\Program Files (x86)\Microchip\xc8\v2.00\pic\include\pic16lf1937.h"
  1002                           CCP1CON equ 0293h ;# 
  1003  0293                     # 4647 "C:\Program Files (x86)\Microchip\xc8\v2.00\pic\include\pic16lf1937.h"
  1004                           PWM1CON equ 0294h ;# 
  1005  0294                     # 4709 "C:\Program Files (x86)\Microchip\xc8\v2.00\pic\include\pic16lf1937.h"
  1006                           CCP1AS equ 0295h ;# 
  1007  0295                     # 4714 "C:\Program Files (x86)\Microchip\xc8\v2.00\pic\include\pic16lf1937.h"
  1008                           ECCP1AS equ 0295h ;# 
  1009  0295                     # 4831 "C:\Program Files (x86)\Microchip\xc8\v2.00\pic\include\pic16lf1937.h"
  1010                           PSTR1CON equ 0296h ;# 
  1011  0296                     # 4875 "C:\Program Files (x86)\Microchip\xc8\v2.00\pic\include\pic16lf1937.h"
  1012                           CCPR2 equ 0298h ;# 
  1013  0298                     # 4882 "C:\Program Files (x86)\Microchip\xc8\v2.00\pic\include\pic16lf1937.h"
  1014                           CCPR2L equ 0298h ;# 
  1015  0298                     # 4902 "C:\Program Files (x86)\Microchip\xc8\v2.00\pic\include\pic16lf1937.h"
  1016                           CCPR2H equ 0299h ;# 
  1017  0299                     # 4922 "C:\Program Files (x86)\Microchip\xc8\v2.00\pic\include\pic16lf1937.h"
  1018                           CCP2CON equ 029Ah ;# 
  1019  029A                     # 5004 "C:\Program Files (x86)\Microchip\xc8\v2.00\pic\include\pic16lf1937.h"
  1020                           PWM2CON equ 029Bh ;# 
  1021  029B                     # 5066 "C:\Program Files (x86)\Microchip\xc8\v2.00\pic\include\pic16lf1937.h"
  1022                           CCP2AS equ 029Ch ;# 
  1023  029C                     # 5071 "C:\Program Files (x86)\Microchip\xc8\v2.00\pic\include\pic16lf1937.h"
  1024                           ECCP2AS equ 029Ch ;# 
  1025  029C                     # 5188 "C:\Program Files (x86)\Microchip\xc8\v2.00\pic\include\pic16lf1937.h"
  1026                           PSTR2CON equ 029Dh ;# 
  1027  029D                     # 5232 "C:\Program Files (x86)\Microchip\xc8\v2.00\pic\include\pic16lf1937.h"
  1028                           CCPTMRS0 equ 029Eh ;# 
  1029  029E                     # 5320 "C:\Program Files (x86)\Microchip\xc8\v2.00\pic\include\pic16lf1937.h"
  1030                           CCPTMRS1 equ 029Fh ;# 
  1031  029F                     # 5354 "C:\Program Files (x86)\Microchip\xc8\v2.00\pic\include\pic16lf1937.h"
  1032                           CCPR3 equ 0311h ;# 
  1033  0311                     # 5361 "C:\Program Files (x86)\Microchip\xc8\v2.00\pic\include\pic16lf1937.h"
  1034                           CCPR3L equ 0311h ;# 
  1035  0311                     # 5381 "C:\Program Files (x86)\Microchip\xc8\v2.00\pic\include\pic16lf1937.h"
  1036                           CCPR3H equ 0312h ;# 
  1037  0312                     # 5401 "C:\Program Files (x86)\Microchip\xc8\v2.00\pic\include\pic16lf1937.h"
  1038                           CCP3CON equ 0313h ;# 
  1039  0313                     # 5483 "C:\Program Files (x86)\Microchip\xc8\v2.00\pic\include\pic16lf1937.h"
  1040                           PWM3CON equ 0314h ;# 
  1041  0314                     # 5545 "C:\Program Files (x86)\Microchip\xc8\v2.00\pic\include\pic16lf1937.h"
  1042                           CCP3AS equ 0315h ;# 
  1043  0315                     # 5550 "C:\Program Files (x86)\Microchip\xc8\v2.00\pic\include\pic16lf1937.h"
  1044                           ECCP3AS equ 0315h ;# 
  1045  0315                     # 5667 "C:\Program Files (x86)\Microchip\xc8\v2.00\pic\include\pic16lf1937.h"
  1046                           PSTR3CON equ 0316h ;# 
  1047  0316                     # 5711 "C:\Program Files (x86)\Microchip\xc8\v2.00\pic\include\pic16lf1937.h"
  1048                           CCPR4 equ 0318h ;# 
  1049  0318                     # 5718 "C:\Program Files (x86)\Microchip\xc8\v2.00\pic\include\pic16lf1937.h"
  1050                           CCPR4L equ 0318h ;# 
  1051  0318                     # 5738 "C:\Program Files (x86)\Microchip\xc8\v2.00\pic\include\pic16lf1937.h"
  1052                           CCPR4H equ 0319h ;# 
  1053  0319                     # 5758 "C:\Program Files (x86)\Microchip\xc8\v2.00\pic\include\pic16lf1937.h"
  1054                           CCP4CON equ 031Ah ;# 
  1055  031A                     # 5822 "C:\Program Files (x86)\Microchip\xc8\v2.00\pic\include\pic16lf1937.h"
  1056                           CCPR5 equ 031Ch ;# 
  1057  031C                     # 5829 "C:\Program Files (x86)\Microchip\xc8\v2.00\pic\include\pic16lf1937.h"
  1058                           CCPR5L equ 031Ch ;# 
  1059  031C                     # 5849 "C:\Program Files (x86)\Microchip\xc8\v2.00\pic\include\pic16lf1937.h"
  1060                           CCPR5H equ 031Dh ;# 
  1061  031D                     # 5869 "C:\Program Files (x86)\Microchip\xc8\v2.00\pic\include\pic16lf1937.h"
  1062                           CCP5CON equ 031Eh ;# 
  1063  031E                     # 5933 "C:\Program Files (x86)\Microchip\xc8\v2.00\pic\include\pic16lf1937.h"
  1064                           IOCBP equ 0394h ;# 
  1065  0394                     # 6003 "C:\Program Files (x86)\Microchip\xc8\v2.00\pic\include\pic16lf1937.h"
  1066                           IOCBN equ 0395h ;# 
  1067  0395                     # 6073 "C:\Program Files (x86)\Microchip\xc8\v2.00\pic\include\pic16lf1937.h"
  1068                           IOCBF equ 0396h ;# 
  1069  0396                     # 6143 "C:\Program Files (x86)\Microchip\xc8\v2.00\pic\include\pic16lf1937.h"
  1070                           TMR4 equ 0415h ;# 
  1071  0415                     # 6163 "C:\Program Files (x86)\Microchip\xc8\v2.00\pic\include\pic16lf1937.h"
  1072                           PR4 equ 0416h ;# 
  1073  0416                     # 6183 "C:\Program Files (x86)\Microchip\xc8\v2.00\pic\include\pic16lf1937.h"
  1074                           T4CON equ 0417h ;# 
  1075  0417                     # 6254 "C:\Program Files (x86)\Microchip\xc8\v2.00\pic\include\pic16lf1937.h"
  1076                           TMR6 equ 041Ch ;# 
  1077  041C                     # 6274 "C:\Program Files (x86)\Microchip\xc8\v2.00\pic\include\pic16lf1937.h"
  1078                           PR6 equ 041Dh ;# 
  1079  041D                     # 6294 "C:\Program Files (x86)\Microchip\xc8\v2.00\pic\include\pic16lf1937.h"
  1080                           T6CON equ 041Eh ;# 
  1081  041E                     # 6365 "C:\Program Files (x86)\Microchip\xc8\v2.00\pic\include\pic16lf1937.h"
  1082                           LCDCON equ 0791h ;# 
  1083  0791                     # 6436 "C:\Program Files (x86)\Microchip\xc8\v2.00\pic\include\pic16lf1937.h"
  1084                           LCDPS equ 0792h ;# 
  1085  0792                     # 6506 "C:\Program Files (x86)\Microchip\xc8\v2.00\pic\include\pic16lf1937.h"
  1086                           LCDREF equ 0793h ;# 
  1087  0793                     # 6558 "C:\Program Files (x86)\Microchip\xc8\v2.00\pic\include\pic16lf1937.h"
  1088                           LCDCST equ 0794h ;# 
  1089  0794                     # 6598 "C:\Program Files (x86)\Microchip\xc8\v2.00\pic\include\pic16lf1937.h"
  1090                           LCDRL equ 0795h ;# 
  1091  0795                     # 6676 "C:\Program Files (x86)\Microchip\xc8\v2.00\pic\include\pic16lf1937.h"
  1092                           LCDSE0 equ 0798h ;# 
  1093  0798                     # 6738 "C:\Program Files (x86)\Microchip\xc8\v2.00\pic\include\pic16lf1937.h"
  1094                           LCDSE1 equ 0799h ;# 
  1095  0799                     # 6800 "C:\Program Files (x86)\Microchip\xc8\v2.00\pic\include\pic16lf1937.h"
  1096                           LCDSE2 equ 079Ah ;# 
  1097  079A                     # 6862 "C:\Program Files (x86)\Microchip\xc8\v2.00\pic\include\pic16lf1937.h"
  1098                           LCDDATA0 equ 07A0h ;# 
  1099  07A0                     # 6924 "C:\Program Files (x86)\Microchip\xc8\v2.00\pic\include\pic16lf1937.h"
  1100                           LCDDATA1 equ 07A1h ;# 
  1101  07A1                     # 6986 "C:\Program Files (x86)\Microchip\xc8\v2.00\pic\include\pic16lf1937.h"
  1102                           LCDDATA2 equ 07A2h ;# 
  1103  07A2                     # 7048 "C:\Program Files (x86)\Microchip\xc8\v2.00\pic\include\pic16lf1937.h"
  1104                           LCDDATA3 equ 07A3h ;# 
  1105  07A3                     # 7110 "C:\Program Files (x86)\Microchip\xc8\v2.00\pic\include\pic16lf1937.h"
  1106                           LCDDATA4 equ 07A4h ;# 
  1107  07A4                     # 7172 "C:\Program Files (x86)\Microchip\xc8\v2.00\pic\include\pic16lf1937.h"
  1108                           LCDDATA5 equ 07A5h ;# 
  1109  07A5                     # 7234 "C:\Program Files (x86)\Microchip\xc8\v2.00\pic\include\pic16lf1937.h"
  1110                           LCDDATA6 equ 07A6h ;# 
  1111  07A6                     # 7296 "C:\Program Files (x86)\Microchip\xc8\v2.00\pic\include\pic16lf1937.h"
  1112                           LCDDATA7 equ 07A7h ;# 
  1113  07A7                     # 7358 "C:\Program Files (x86)\Microchip\xc8\v2.00\pic\include\pic16lf1937.h"
  1114                           LCDDATA8 equ 07A8h ;# 
  1115  07A8                     # 7420 "C:\Program Files (x86)\Microchip\xc8\v2.00\pic\include\pic16lf1937.h"
  1116                           LCDDATA9 equ 07A9h ;# 
  1117  07A9                     # 7482 "C:\Program Files (x86)\Microchip\xc8\v2.00\pic\include\pic16lf1937.h"
  1118                           LCDDATA10 equ 07AAh ;# 
  1119  07AA                     # 7544 "C:\Program Files (x86)\Microchip\xc8\v2.00\pic\include\pic16lf1937.h"
  1120                           LCDDATA11 equ 07ABh ;# 
  1121  07AB                     # 7606 "C:\Program Files (x86)\Microchip\xc8\v2.00\pic\include\pic16lf1937.h"
  1122                           STATUS_SHAD equ 0FE4h ;# 
  1123  0FE4                     # 7638 "C:\Program Files (x86)\Microchip\xc8\v2.00\pic\include\pic16lf1937.h"
  1124                           WREG_SHAD equ 0FE5h ;# 
  1125  0FE5                     # 7658 "C:\Program Files (x86)\Microchip\xc8\v2.00\pic\include\pic16lf1937.h"
  1126                           BSR_SHAD equ 0FE6h ;# 
  1127  0FE6                     # 7678 "C:\Program Files (x86)\Microchip\xc8\v2.00\pic\include\pic16lf1937.h"
  1128                           PCLATH_SHAD equ 0FE7h ;# 
  1129  0FE7                     # 7698 "C:\Program Files (x86)\Microchip\xc8\v2.00\pic\include\pic16lf1937.h"
  1130                           FSR0L_SHAD equ 0FE8h ;# 
  1131  0FE8                     # 7718 "C:\Program Files (x86)\Microchip\xc8\v2.00\pic\include\pic16lf1937.h"
  1132                           FSR0H_SHAD equ 0FE9h ;# 
  1133  0FE9                     # 7738 "C:\Program Files (x86)\Microchip\xc8\v2.00\pic\include\pic16lf1937.h"
  1134                           FSR1L_SHAD equ 0FEAh ;# 
  1135  0FEA                     # 7758 "C:\Program Files (x86)\Microchip\xc8\v2.00\pic\include\pic16lf1937.h"
  1136                           FSR1H_SHAD equ 0FEBh ;# 
  1137  0FEB                     # 7778 "C:\Program Files (x86)\Microchip\xc8\v2.00\pic\include\pic16lf1937.h"
  1138                           STKPTR equ 0FEDh ;# 
  1139  0FED                     # 7798 "C:\Program Files (x86)\Microchip\xc8\v2.00\pic\include\pic16lf1937.h"
  1140                           TOSL equ 0FEEh ;# 
  1141  0FEE                     # 7818 "C:\Program Files (x86)\Microchip\xc8\v2.00\pic\include\pic16lf1937.h"
  1142                           TOSH equ 0FEFh ;# 
  1143  0FEF                     # 54 "C:\Program Files (x86)\Microchip\xc8\v2.00\pic\include\pic16lf1937.h"
  1144                           INDF0 equ 00h ;# 
  1145  0000                     # 74 "C:\Program Files (x86)\Microchip\xc8\v2.00\pic\include\pic16lf1937.h"
  1146                           INDF1 equ 01h ;# 
  1147  0001                     # 94 "C:\Program Files (x86)\Microchip\xc8\v2.00\pic\include\pic16lf1937.h"
  1148                           PCL equ 02h ;# 
  1149  0002                     # 114 "C:\Program Files (x86)\Microchip\xc8\v2.00\pic\include\pic16lf1937.h"
  1150                           STATUS equ 03h ;# 
  1151  0003                     # 177 "C:\Program Files (x86)\Microchip\xc8\v2.00\pic\include\pic16lf1937.h"
  1152                           FSR0L equ 04h ;# 
  1153  0004                     # 197 "C:\Program Files (x86)\Microchip\xc8\v2.00\pic\include\pic16lf1937.h"
  1154                           FSR0H equ 05h ;# 
  1155  0005                     # 221 "C:\Program Files (x86)\Microchip\xc8\v2.00\pic\include\pic16lf1937.h"
  1156                           FSR1L equ 06h ;# 
  1157  0006                     # 241 "C:\Program Files (x86)\Microchip\xc8\v2.00\pic\include\pic16lf1937.h"
  1158                           FSR1H equ 07h ;# 
  1159  0007                     # 261 "C:\Program Files (x86)\Microchip\xc8\v2.00\pic\include\pic16lf1937.h"
  1160                           BSR equ 08h ;# 
  1161  0008                     # 313 "C:\Program Files (x86)\Microchip\xc8\v2.00\pic\include\pic16lf1937.h"
  1162                           WREG equ 09h ;# 
  1163  0009                     # 333 "C:\Program Files (x86)\Microchip\xc8\v2.00\pic\include\pic16lf1937.h"
  1164                           PCLATH equ 0Ah ;# 
  1165  000A                     # 353 "C:\Program Files (x86)\Microchip\xc8\v2.00\pic\include\pic16lf1937.h"
  1166                           INTCON equ 0Bh ;# 
  1167  000B                     # 431 "C:\Program Files (x86)\Microchip\xc8\v2.00\pic\include\pic16lf1937.h"
  1168                           PORTA equ 0Ch ;# 
  1169  000C                     # 493 "C:\Program Files (x86)\Microchip\xc8\v2.00\pic\include\pic16lf1937.h"
  1170                           PORTB equ 0Dh ;# 
  1171  000D                     # 555 "C:\Program Files (x86)\Microchip\xc8\v2.00\pic\include\pic16lf1937.h"
  1172                           PORTC equ 0Eh ;# 
  1173  000E                     # 617 "C:\Program Files (x86)\Microchip\xc8\v2.00\pic\include\pic16lf1937.h"
  1174                           PORTD equ 0Fh ;# 
  1175  000F                     # 679 "C:\Program Files (x86)\Microchip\xc8\v2.00\pic\include\pic16lf1937.h"
  1176                           PORTE equ 010h ;# 
  1177  0010                     # 717 "C:\Program Files (x86)\Microchip\xc8\v2.00\pic\include\pic16lf1937.h"
  1178                           PIR1 equ 011h ;# 
  1179  0011                     # 779 "C:\Program Files (x86)\Microchip\xc8\v2.00\pic\include\pic16lf1937.h"
  1180                           PIR2 equ 012h ;# 
  1181  0012                     # 836 "C:\Program Files (x86)\Microchip\xc8\v2.00\pic\include\pic16lf1937.h"
  1182                           PIR3 equ 013h ;# 
  1183  0013                     # 882 "C:\Program Files (x86)\Microchip\xc8\v2.00\pic\include\pic16lf1937.h"
  1184                           TMR0 equ 015h ;# 
  1185  0015                     # 902 "C:\Program Files (x86)\Microchip\xc8\v2.00\pic\include\pic16lf1937.h"
  1186                           TMR1 equ 016h ;# 
  1187  0016                     # 909 "C:\Program Files (x86)\Microchip\xc8\v2.00\pic\include\pic16lf1937.h"
  1188                           TMR1L equ 016h ;# 
  1189  0016                     # 929 "C:\Program Files (x86)\Microchip\xc8\v2.00\pic\include\pic16lf1937.h"
  1190                           TMR1H equ 017h ;# 
  1191  0017                     # 949 "C:\Program Files (x86)\Microchip\xc8\v2.00\pic\include\pic16lf1937.h"
  1192                           T1CON equ 018h ;# 
  1193  0018                     # 1021 "C:\Program Files (x86)\Microchip\xc8\v2.00\pic\include\pic16lf1937.h"
  1194                           T1GCON equ 019h ;# 
  1195  0019                     # 1098 "C:\Program Files (x86)\Microchip\xc8\v2.00\pic\include\pic16lf1937.h"
  1196                           TMR2 equ 01Ah ;# 
  1197  001A                     # 1118 "C:\Program Files (x86)\Microchip\xc8\v2.00\pic\include\pic16lf1937.h"
  1198                           PR2 equ 01Bh ;# 
  1199  001B                     # 1138 "C:\Program Files (x86)\Microchip\xc8\v2.00\pic\include\pic16lf1937.h"
  1200                           T2CON equ 01Ch ;# 
  1201  001C                     # 1209 "C:\Program Files (x86)\Microchip\xc8\v2.00\pic\include\pic16lf1937.h"
  1202                           CPSCON0 equ 01Eh ;# 
  1203  001E                     # 1263 "C:\Program Files (x86)\Microchip\xc8\v2.00\pic\include\pic16lf1937.h"
  1204                           CPSCON1 equ 01Fh ;# 
  1205  001F                     # 1309 "C:\Program Files (x86)\Microchip\xc8\v2.00\pic\include\pic16lf1937.h"
  1206                           TRISA equ 08Ch ;# 
  1207  008C                     # 1371 "C:\Program Files (x86)\Microchip\xc8\v2.00\pic\include\pic16lf1937.h"
  1208                           TRISB equ 08Dh ;# 
  1209  008D                     # 1433 "C:\Program Files (x86)\Microchip\xc8\v2.00\pic\include\pic16lf1937.h"
  1210                           TRISC equ 08Eh ;# 
  1211  008E                     # 1495 "C:\Program Files (x86)\Microchip\xc8\v2.00\pic\include\pic16lf1937.h"
  1212                           TRISD equ 08Fh ;# 
  1213  008F                     # 1557 "C:\Program Files (x86)\Microchip\xc8\v2.00\pic\include\pic16lf1937.h"
  1214                           TRISE equ 090h ;# 
  1215  0090                     # 1595 "C:\Program Files (x86)\Microchip\xc8\v2.00\pic\include\pic16lf1937.h"
  1216                           PIE1 equ 091h ;# 
  1217  0091                     # 1657 "C:\Program Files (x86)\Microchip\xc8\v2.00\pic\include\pic16lf1937.h"
  1218                           PIE2 equ 092h ;# 
  1219  0092                     # 1714 "C:\Program Files (x86)\Microchip\xc8\v2.00\pic\include\pic16lf1937.h"
  1220                           PIE3 equ 093h ;# 
  1221  0093                     # 1760 "C:\Program Files (x86)\Microchip\xc8\v2.00\pic\include\pic16lf1937.h"
  1222                           OPTION_REG equ 095h ;# 
  1223  0095                     # 1843 "C:\Program Files (x86)\Microchip\xc8\v2.00\pic\include\pic16lf1937.h"
  1224                           PCON equ 096h ;# 
  1225  0096                     # 1894 "C:\Program Files (x86)\Microchip\xc8\v2.00\pic\include\pic16lf1937.h"
  1226                           WDTCON equ 097h ;# 
  1227  0097                     # 1953 "C:\Program Files (x86)\Microchip\xc8\v2.00\pic\include\pic16lf1937.h"
  1228                           OSCTUNE equ 098h ;# 
  1229  0098                     # 2011 "C:\Program Files (x86)\Microchip\xc8\v2.00\pic\include\pic16lf1937.h"
  1230                           OSCCON equ 099h ;# 
  1231  0099                     # 2083 "C:\Program Files (x86)\Microchip\xc8\v2.00\pic\include\pic16lf1937.h"
  1232                           OSCSTAT equ 09Ah ;# 
  1233  009A                     # 2145 "C:\Program Files (x86)\Microchip\xc8\v2.00\pic\include\pic16lf1937.h"
  1234                           ADRES equ 09Bh ;# 
  1235  009B                     # 2152 "C:\Program Files (x86)\Microchip\xc8\v2.00\pic\include\pic16lf1937.h"
  1236                           ADRESL equ 09Bh ;# 
  1237  009B                     # 2172 "C:\Program Files (x86)\Microchip\xc8\v2.00\pic\include\pic16lf1937.h"
  1238                           ADRESH equ 09Ch ;# 
  1239  009C                     # 2192 "C:\Program Files (x86)\Microchip\xc8\v2.00\pic\include\pic16lf1937.h"
  1240                           ADCON0 equ 09Dh ;# 
  1241  009D                     # 2281 "C:\Program Files (x86)\Microchip\xc8\v2.00\pic\include\pic16lf1937.h"
  1242                           ADCON1 equ 09Eh ;# 
  1243  009E                     # 2353 "C:\Program Files (x86)\Microchip\xc8\v2.00\pic\include\pic16lf1937.h"
  1244                           LATA equ 010Ch ;# 
  1245  010C                     # 2415 "C:\Program Files (x86)\Microchip\xc8\v2.00\pic\include\pic16lf1937.h"
  1246                           LATB equ 010Dh ;# 
  1247  010D                     # 2477 "C:\Program Files (x86)\Microchip\xc8\v2.00\pic\include\pic16lf1937.h"
  1248                           LATC equ 010Eh ;# 
  1249  010E                     # 2539 "C:\Program Files (x86)\Microchip\xc8\v2.00\pic\include\pic16lf1937.h"
  1250                           LATD equ 010Fh ;# 
  1251  010F                     # 2609 "C:\Program Files (x86)\Microchip\xc8\v2.00\pic\include\pic16lf1937.h"
  1252                           LATE equ 0110h ;# 
  1253  0110                     # 2647 "C:\Program Files (x86)\Microchip\xc8\v2.00\pic\include\pic16lf1937.h"
  1254                           CM1CON0 equ 0111h ;# 
  1255  0111                     # 2704 "C:\Program Files (x86)\Microchip\xc8\v2.00\pic\include\pic16lf1937.h"
  1256                           CM1CON1 equ 0112h ;# 
  1257  0112                     # 2770 "C:\Program Files (x86)\Microchip\xc8\v2.00\pic\include\pic16lf1937.h"
  1258                           CM2CON0 equ 0113h ;# 
  1259  0113                     # 2827 "C:\Program Files (x86)\Microchip\xc8\v2.00\pic\include\pic16lf1937.h"
  1260                           CM2CON1 equ 0114h ;# 
  1261  0114                     # 2893 "C:\Program Files (x86)\Microchip\xc8\v2.00\pic\include\pic16lf1937.h"
  1262                           CMOUT equ 0115h ;# 
  1263  0115                     # 2919 "C:\Program Files (x86)\Microchip\xc8\v2.00\pic\include\pic16lf1937.h"
  1264                           BORCON equ 0116h ;# 
  1265  0116                     # 2946 "C:\Program Files (x86)\Microchip\xc8\v2.00\pic\include\pic16lf1937.h"
  1266                           FVRCON equ 0117h ;# 
  1267  0117                     # 3022 "C:\Program Files (x86)\Microchip\xc8\v2.00\pic\include\pic16lf1937.h"
  1268                           DACCON0 equ 0118h ;# 
  1269  0118                     # 3083 "C:\Program Files (x86)\Microchip\xc8\v2.00\pic\include\pic16lf1937.h"
  1270                           DACCON1 equ 0119h ;# 
  1271  0119                     # 3135 "C:\Program Files (x86)\Microchip\xc8\v2.00\pic\include\pic16lf1937.h"
  1272                           SRCON0 equ 011Ah ;# 
  1273  011A                     # 3206 "C:\Program Files (x86)\Microchip\xc8\v2.00\pic\include\pic16lf1937.h"
  1274                           SRCON1 equ 011Bh ;# 
  1275  011B                     # 3268 "C:\Program Files (x86)\Microchip\xc8\v2.00\pic\include\pic16lf1937.h"
  1276                           APFCON equ 011Dh ;# 
  1277  011D                     # 3324 "C:\Program Files (x86)\Microchip\xc8\v2.00\pic\include\pic16lf1937.h"
  1278                           ANSELA equ 018Ch ;# 
  1279  018C                     # 3382 "C:\Program Files (x86)\Microchip\xc8\v2.00\pic\include\pic16lf1937.h"
  1280                           ANSELB equ 018Dh ;# 
  1281  018D                     # 3440 "C:\Program Files (x86)\Microchip\xc8\v2.00\pic\include\pic16lf1937.h"
  1282                           ANSELD equ 018Fh ;# 
  1283  018F                     # 3510 "C:\Program Files (x86)\Microchip\xc8\v2.00\pic\include\pic16lf1937.h"
  1284                           ANSELE equ 0190h ;# 
  1285  0190                     # 3550 "C:\Program Files (x86)\Microchip\xc8\v2.00\pic\include\pic16lf1937.h"
  1286                           EEADR equ 0191h ;# 
  1287  0191                     # 3557 "C:\Program Files (x86)\Microchip\xc8\v2.00\pic\include\pic16lf1937.h"
  1288                           EEADRL equ 0191h ;# 
  1289  0191                     # 3577 "C:\Program Files (x86)\Microchip\xc8\v2.00\pic\include\pic16lf1937.h"
  1290                           EEADRH equ 0192h ;# 
  1291  0192                     # 3597 "C:\Program Files (x86)\Microchip\xc8\v2.00\pic\include\pic16lf1937.h"
  1292                           EEDAT equ 0193h ;# 
  1293  0193                     # 3604 "C:\Program Files (x86)\Microchip\xc8\v2.00\pic\include\pic16lf1937.h"
  1294                           EEDATL equ 0193h ;# 
  1295  0193                     # 3609 "C:\Program Files (x86)\Microchip\xc8\v2.00\pic\include\pic16lf1937.h"
  1296                           EEDATA equ 0193h ;# 
  1297  0193                     # 3642 "C:\Program Files (x86)\Microchip\xc8\v2.00\pic\include\pic16lf1937.h"
  1298                           EEDATH equ 0194h ;# 
  1299  0194                     # 3662 "C:\Program Files (x86)\Microchip\xc8\v2.00\pic\include\pic16lf1937.h"
  1300                           EECON1 equ 0195h ;# 
  1301  0195                     # 3724 "C:\Program Files (x86)\Microchip\xc8\v2.00\pic\include\pic16lf1937.h"
  1302                           EECON2 equ 0196h ;# 
  1303  0196                     # 3744 "C:\Program Files (x86)\Microchip\xc8\v2.00\pic\include\pic16lf1937.h"
  1304                           RCREG equ 0199h ;# 
  1305  0199                     # 3764 "C:\Program Files (x86)\Microchip\xc8\v2.00\pic\include\pic16lf1937.h"
  1306                           TXREG equ 019Ah ;# 
  1307  019A                     # 3784 "C:\Program Files (x86)\Microchip\xc8\v2.00\pic\include\pic16lf1937.h"
  1308                           SP1BRG equ 019Bh ;# 
  1309  019B                     # 3791 "C:\Program Files (x86)\Microchip\xc8\v2.00\pic\include\pic16lf1937.h"
  1310                           SP1BRGL equ 019Bh ;# 
  1311  019B                     # 3796 "C:\Program Files (x86)\Microchip\xc8\v2.00\pic\include\pic16lf1937.h"
  1312                           SPBRG equ 019Bh ;# 
  1313  019B                     # 3800 "C:\Program Files (x86)\Microchip\xc8\v2.00\pic\include\pic16lf1937.h"
  1314                           SPBRGL equ 019Bh ;# 
  1315  019B                     # 3845 "C:\Program Files (x86)\Microchip\xc8\v2.00\pic\include\pic16lf1937.h"
  1316                           SP1BRGH equ 019Ch ;# 
  1317  019C                     # 3850 "C:\Program Files (x86)\Microchip\xc8\v2.00\pic\include\pic16lf1937.h"
  1318                           SPBRGH equ 019Ch ;# 
  1319  019C                     # 3883 "C:\Program Files (x86)\Microchip\xc8\v2.00\pic\include\pic16lf1937.h"
  1320                           RCSTA equ 019Dh ;# 
  1321  019D                     # 3945 "C:\Program Files (x86)\Microchip\xc8\v2.00\pic\include\pic16lf1937.h"
  1322                           TXSTA equ 019Eh ;# 
  1323  019E                     # 4007 "C:\Program Files (x86)\Microchip\xc8\v2.00\pic\include\pic16lf1937.h"
  1324                           BAUDCON equ 019Fh ;# 
  1325  019F                     # 4059 "C:\Program Files (x86)\Microchip\xc8\v2.00\pic\include\pic16lf1937.h"
  1326                           WPUB equ 020Dh ;# 
  1327  020D                     # 4129 "C:\Program Files (x86)\Microchip\xc8\v2.00\pic\include\pic16lf1937.h"
  1328                           WPUE equ 0210h ;# 
  1329  0210                     # 4150 "C:\Program Files (x86)\Microchip\xc8\v2.00\pic\include\pic16lf1937.h"
  1330                           SSPBUF equ 0211h ;# 
  1331  0211                     # 4170 "C:\Program Files (x86)\Microchip\xc8\v2.00\pic\include\pic16lf1937.h"
  1332                           SSPADD equ 0212h ;# 
  1333  0212                     # 4190 "C:\Program Files (x86)\Microchip\xc8\v2.00\pic\include\pic16lf1937.h"
  1334                           SSPMSK equ 0213h ;# 
  1335  0213                     # 4210 "C:\Program Files (x86)\Microchip\xc8\v2.00\pic\include\pic16lf1937.h"
  1336                           SSPSTAT equ 0214h ;# 
  1337  0214                     # 4272 "C:\Program Files (x86)\Microchip\xc8\v2.00\pic\include\pic16lf1937.h"
  1338                           SSPCON1 equ 0215h ;# 
  1339  0215                     # 4277 "C:\Program Files (x86)\Microchip\xc8\v2.00\pic\include\pic16lf1937.h"
  1340                           SSPCON equ 0215h ;# 
  1341  0215                     # 4394 "C:\Program Files (x86)\Microchip\xc8\v2.00\pic\include\pic16lf1937.h"
  1342                           SSPCON2 equ 0216h ;# 
  1343  0216                     # 4456 "C:\Program Files (x86)\Microchip\xc8\v2.00\pic\include\pic16lf1937.h"
  1344                           SSPCON3 equ 0217h ;# 
  1345  0217                     # 4518 "C:\Program Files (x86)\Microchip\xc8\v2.00\pic\include\pic16lf1937.h"
  1346                           CCPR1 equ 0291h ;# 
  1347  0291                     # 4525 "C:\Program Files (x86)\Microchip\xc8\v2.00\pic\include\pic16lf1937.h"
  1348                           CCPR1L equ 0291h ;# 
  1349  0291                     # 4545 "C:\Program Files (x86)\Microchip\xc8\v2.00\pic\include\pic16lf1937.h"
  1350                           CCPR1H equ 0292h ;# 
  1351  0292                     # 4565 "C:\Program Files (x86)\Microchip\xc8\v2.00\pic\include\pic16lf1937.h"
  1352                           CCP1CON equ 0293h ;# 
  1353  0293                     # 4647 "C:\Program Files (x86)\Microchip\xc8\v2.00\pic\include\pic16lf1937.h"
  1354                           PWM1CON equ 0294h ;# 
  1355  0294                     # 4709 "C:\Program Files (x86)\Microchip\xc8\v2.00\pic\include\pic16lf1937.h"
  1356                           CCP1AS equ 0295h ;# 
  1357  0295                     # 4714 "C:\Program Files (x86)\Microchip\xc8\v2.00\pic\include\pic16lf1937.h"
  1358                           ECCP1AS equ 0295h ;# 
  1359  0295                     # 4831 "C:\Program Files (x86)\Microchip\xc8\v2.00\pic\include\pic16lf1937.h"
  1360                           PSTR1CON equ 0296h ;# 
  1361  0296                     # 4875 "C:\Program Files (x86)\Microchip\xc8\v2.00\pic\include\pic16lf1937.h"
  1362                           CCPR2 equ 0298h ;# 
  1363  0298                     # 4882 "C:\Program Files (x86)\Microchip\xc8\v2.00\pic\include\pic16lf1937.h"
  1364                           CCPR2L equ 0298h ;# 
  1365  0298                     # 4902 "C:\Program Files (x86)\Microchip\xc8\v2.00\pic\include\pic16lf1937.h"
  1366                           CCPR2H equ 0299h ;# 
  1367  0299                     # 4922 "C:\Program Files (x86)\Microchip\xc8\v2.00\pic\include\pic16lf1937.h"
  1368                           CCP2CON equ 029Ah ;# 
  1369  029A                     # 5004 "C:\Program Files (x86)\Microchip\xc8\v2.00\pic\include\pic16lf1937.h"
  1370                           PWM2CON equ 029Bh ;# 
  1371  029B                     # 5066 "C:\Program Files (x86)\Microchip\xc8\v2.00\pic\include\pic16lf1937.h"
  1372                           CCP2AS equ 029Ch ;# 
  1373  029C                     # 5071 "C:\Program Files (x86)\Microchip\xc8\v2.00\pic\include\pic16lf1937.h"
  1374                           ECCP2AS equ 029Ch ;# 
  1375  029C                     # 5188 "C:\Program Files (x86)\Microchip\xc8\v2.00\pic\include\pic16lf1937.h"
  1376                           PSTR2CON equ 029Dh ;# 
  1377  029D                     # 5232 "C:\Program Files (x86)\Microchip\xc8\v2.00\pic\include\pic16lf1937.h"
  1378                           CCPTMRS0 equ 029Eh ;# 
  1379  029E                     # 5320 "C:\Program Files (x86)\Microchip\xc8\v2.00\pic\include\pic16lf1937.h"
  1380                           CCPTMRS1 equ 029Fh ;# 
  1381  029F                     # 5354 "C:\Program Files (x86)\Microchip\xc8\v2.00\pic\include\pic16lf1937.h"
  1382                           CCPR3 equ 0311h ;# 
  1383  0311                     # 5361 "C:\Program Files (x86)\Microchip\xc8\v2.00\pic\include\pic16lf1937.h"
  1384                           CCPR3L equ 0311h ;# 
  1385  0311                     # 5381 "C:\Program Files (x86)\Microchip\xc8\v2.00\pic\include\pic16lf1937.h"
  1386                           CCPR3H equ 0312h ;# 
  1387  0312                     # 5401 "C:\Program Files (x86)\Microchip\xc8\v2.00\pic\include\pic16lf1937.h"
  1388                           CCP3CON equ 0313h ;# 
  1389  0313                     # 5483 "C:\Program Files (x86)\Microchip\xc8\v2.00\pic\include\pic16lf1937.h"
  1390                           PWM3CON equ 0314h ;# 
  1391  0314                     # 5545 "C:\Program Files (x86)\Microchip\xc8\v2.00\pic\include\pic16lf1937.h"
  1392                           CCP3AS equ 0315h ;# 
  1393  0315                     # 5550 "C:\Program Files (x86)\Microchip\xc8\v2.00\pic\include\pic16lf1937.h"
  1394                           ECCP3AS equ 0315h ;# 
  1395  0315                     # 5667 "C:\Program Files (x86)\Microchip\xc8\v2.00\pic\include\pic16lf1937.h"
  1396                           PSTR3CON equ 0316h ;# 
  1397  0316                     # 5711 "C:\Program Files (x86)\Microchip\xc8\v2.00\pic\include\pic16lf1937.h"
  1398                           CCPR4 equ 0318h ;# 
  1399  0318                     # 5718 "C:\Program Files (x86)\Microchip\xc8\v2.00\pic\include\pic16lf1937.h"
  1400                           CCPR4L equ 0318h ;# 
  1401  0318                     # 5738 "C:\Program Files (x86)\Microchip\xc8\v2.00\pic\include\pic16lf1937.h"
  1402                           CCPR4H equ 0319h ;# 
  1403  0319                     # 5758 "C:\Program Files (x86)\Microchip\xc8\v2.00\pic\include\pic16lf1937.h"
  1404                           CCP4CON equ 031Ah ;# 
  1405  031A                     # 5822 "C:\Program Files (x86)\Microchip\xc8\v2.00\pic\include\pic16lf1937.h"
  1406                           CCPR5 equ 031Ch ;# 
  1407  031C                     # 5829 "C:\Program Files (x86)\Microchip\xc8\v2.00\pic\include\pic16lf1937.h"
  1408                           CCPR5L equ 031Ch ;# 
  1409  031C                     # 5849 "C:\Program Files (x86)\Microchip\xc8\v2.00\pic\include\pic16lf1937.h"
  1410                           CCPR5H equ 031Dh ;# 
  1411  031D                     # 5869 "C:\Program Files (x86)\Microchip\xc8\v2.00\pic\include\pic16lf1937.h"
  1412                           CCP5CON equ 031Eh ;# 
  1413  031E                     # 5933 "C:\Program Files (x86)\Microchip\xc8\v2.00\pic\include\pic16lf1937.h"
  1414                           IOCBP equ 0394h ;# 
  1415  0394                     # 6003 "C:\Program Files (x86)\Microchip\xc8\v2.00\pic\include\pic16lf1937.h"
  1416                           IOCBN equ 0395h ;# 
  1417  0395                     # 6073 "C:\Program Files (x86)\Microchip\xc8\v2.00\pic\include\pic16lf1937.h"
  1418                           IOCBF equ 0396h ;# 
  1419  0396                     # 6143 "C:\Program Files (x86)\Microchip\xc8\v2.00\pic\include\pic16lf1937.h"
  1420                           TMR4 equ 0415h ;# 
  1421  0415                     # 6163 "C:\Program Files (x86)\Microchip\xc8\v2.00\pic\include\pic16lf1937.h"
  1422                           PR4 equ 0416h ;# 
  1423  0416                     # 6183 "C:\Program Files (x86)\Microchip\xc8\v2.00\pic\include\pic16lf1937.h"
  1424                           T4CON equ 0417h ;# 
  1425  0417                     # 6254 "C:\Program Files (x86)\Microchip\xc8\v2.00\pic\include\pic16lf1937.h"
  1426                           TMR6 equ 041Ch ;# 
  1427  041C                     # 6274 "C:\Program Files (x86)\Microchip\xc8\v2.00\pic\include\pic16lf1937.h"
  1428                           PR6 equ 041Dh ;# 
  1429  041D                     # 6294 "C:\Program Files (x86)\Microchip\xc8\v2.00\pic\include\pic16lf1937.h"
  1430                           T6CON equ 041Eh ;# 
  1431  041E                     # 6365 "C:\Program Files (x86)\Microchip\xc8\v2.00\pic\include\pic16lf1937.h"
  1432                           LCDCON equ 0791h ;# 
  1433  0791                     # 6436 "C:\Program Files (x86)\Microchip\xc8\v2.00\pic\include\pic16lf1937.h"
  1434                           LCDPS equ 0792h ;# 
  1435  0792                     # 6506 "C:\Program Files (x86)\Microchip\xc8\v2.00\pic\include\pic16lf1937.h"
  1436                           LCDREF equ 0793h ;# 
  1437  0793                     # 6558 "C:\Program Files (x86)\Microchip\xc8\v2.00\pic\include\pic16lf1937.h"
  1438                           LCDCST equ 0794h ;# 
  1439  0794                     # 6598 "C:\Program Files (x86)\Microchip\xc8\v2.00\pic\include\pic16lf1937.h"
  1440                           LCDRL equ 0795h ;# 
  1441  0795                     # 6676 "C:\Program Files (x86)\Microchip\xc8\v2.00\pic\include\pic16lf1937.h"
  1442                           LCDSE0 equ 0798h ;# 
  1443  0798                     # 6738 "C:\Program Files (x86)\Microchip\xc8\v2.00\pic\include\pic16lf1937.h"
  1444                           LCDSE1 equ 0799h ;# 
  1445  0799                     # 6800 "C:\Program Files (x86)\Microchip\xc8\v2.00\pic\include\pic16lf1937.h"
  1446                           LCDSE2 equ 079Ah ;# 
  1447  079A                     # 6862 "C:\Program Files (x86)\Microchip\xc8\v2.00\pic\include\pic16lf1937.h"
  1448                           LCDDATA0 equ 07A0h ;# 
  1449  07A0                     # 6924 "C:\Program Files (x86)\Microchip\xc8\v2.00\pic\include\pic16lf1937.h"
  1450                           LCDDATA1 equ 07A1h ;# 
  1451  07A1                     # 6986 "C:\Program Files (x86)\Microchip\xc8\v2.00\pic\include\pic16lf1937.h"
  1452                           LCDDATA2 equ 07A2h ;# 
  1453  07A2                     # 7048 "C:\Program Files (x86)\Microchip\xc8\v2.00\pic\include\pic16lf1937.h"
  1454                           LCDDATA3 equ 07A3h ;# 
  1455  07A3                     # 7110 "C:\Program Files (x86)\Microchip\xc8\v2.00\pic\include\pic16lf1937.h"
  1456                           LCDDATA4 equ 07A4h ;# 
  1457  07A4                     # 7172 "C:\Program Files (x86)\Microchip\xc8\v2.00\pic\include\pic16lf1937.h"
  1458                           LCDDATA5 equ 07A5h ;# 
  1459  07A5                     # 7234 "C:\Program Files (x86)\Microchip\xc8\v2.00\pic\include\pic16lf1937.h"
  1460                           LCDDATA6 equ 07A6h ;# 
  1461  07A6                     # 7296 "C:\Program Files (x86)\Microchip\xc8\v2.00\pic\include\pic16lf1937.h"
  1462                           LCDDATA7 equ 07A7h ;# 
  1463  07A7                     # 7358 "C:\Program Files (x86)\Microchip\xc8\v2.00\pic\include\pic16lf1937.h"
  1464                           LCDDATA8 equ 07A8h ;# 
  1465  07A8                     # 7420 "C:\Program Files (x86)\Microchip\xc8\v2.00\pic\include\pic16lf1937.h"
  1466                           LCDDATA9 equ 07A9h ;# 
  1467  07A9                     # 7482 "C:\Program Files (x86)\Microchip\xc8\v2.00\pic\include\pic16lf1937.h"
  1468                           LCDDATA10 equ 07AAh ;# 
  1469  07AA                     # 7544 "C:\Program Files (x86)\Microchip\xc8\v2.00\pic\include\pic16lf1937.h"
  1470                           LCDDATA11 equ 07ABh ;# 
  1471  07AB                     # 7606 "C:\Program Files (x86)\Microchip\xc8\v2.00\pic\include\pic16lf1937.h"
  1472                           STATUS_SHAD equ 0FE4h ;# 
  1473  0FE4                     # 7638 "C:\Program Files (x86)\Microchip\xc8\v2.00\pic\include\pic16lf1937.h"
  1474                           WREG_SHAD equ 0FE5h ;# 
  1475  0FE5                     # 7658 "C:\Program Files (x86)\Microchip\xc8\v2.00\pic\include\pic16lf1937.h"
  1476                           BSR_SHAD equ 0FE6h ;# 
  1477  0FE6                     # 7678 "C:\Program Files (x86)\Microchip\xc8\v2.00\pic\include\pic16lf1937.h"
  1478                           PCLATH_SHAD equ 0FE7h ;# 
  1479  0FE7                     # 7698 "C:\Program Files (x86)\Microchip\xc8\v2.00\pic\include\pic16lf1937.h"
  1480                           FSR0L_SHAD equ 0FE8h ;# 
  1481  0FE8                     # 7718 "C:\Program Files (x86)\Microchip\xc8\v2.00\pic\include\pic16lf1937.h"
  1482                           FSR0H_SHAD equ 0FE9h ;# 
  1483  0FE9                     # 7738 "C:\Program Files (x86)\Microchip\xc8\v2.00\pic\include\pic16lf1937.h"
  1484                           FSR1L_SHAD equ 0FEAh ;# 
  1485  0FEA                     # 7758 "C:\Program Files (x86)\Microchip\xc8\v2.00\pic\include\pic16lf1937.h"
  1486                           FSR1H_SHAD equ 0FEBh ;# 
  1487  0FEB                     # 7778 "C:\Program Files (x86)\Microchip\xc8\v2.00\pic\include\pic16lf1937.h"
  1488                           STKPTR equ 0FEDh ;# 
  1489  0FED                     # 7798 "C:\Program Files (x86)\Microchip\xc8\v2.00\pic\include\pic16lf1937.h"
  1490                           TOSL equ 0FEEh ;# 
  1491  0FEE                     # 7818 "C:\Program Files (x86)\Microchip\xc8\v2.00\pic\include\pic16lf1937.h"
  1492                           TOSH equ 0FEFh ;# 
  1493  0FEF                     	FNCALL	_main,_CalculateFreq
  1494                           	FNCALL	_main,_SYSTEM_Initialize
  1495                           	FNCALL	_main,_spi_write
  1496                           	FNCALL	_SYSTEM_Initialize,_OSCILLATOR_Initialize
  1497                           	FNCALL	_SYSTEM_Initialize,_PIN_MANAGER_Initialize
  1498                           	FNCALL	_SYSTEM_Initialize,_WDT_Initialize
  1499                           	FNCALL	_CalculateFreq,___fldiv
  1500                           	FNCALL	_CalculateFreq,___fltol
  1501                           	FNROOT	_main
  1502                           	global	_PHASE
  1503                           psect	nvBANK0,class=BANK0,space=1,noexec
  1504                           global __pnvBANK0
  1505                           __pnvBANK0:
  1506  0041                     _PHASE:
  1507  0041                            ds      2
  1508  0041                     
  1509                           	global	_SET
  1510                           _SET:
  1511  0043                            ds      2
  1512  0043                     
  1513                           	global	_RESET
  1514                           _RESET:
  1515  0045                            ds      2
  1516  0045                     
  1517                           	global	_freqMSB
  1518                           _freqMSB:
  1519  0047                            ds      2
  1520  0047                     
  1521                           	global	_freq
  1522                           _freq:
  1523  0049                            ds      4
  1524  0049                     
  1525                           	global	_freqLSB
  1526                           _freqLSB:
  1527  004D                            ds      2
  1528  004D                     
  1529                           	global	_RE1
  1530                           _RE1	set	0x81
  1531  0081                     	global	_RE2
  1532                           _RE2	set	0x82
  1533  0082                     	global	_RE0
  1534                           _RE0	set	0x80
  1535  0080                     	global	_OPTION_REGbits
  1536                           _OPTION_REGbits	set	0x95
  1537  0095                     	global	_TRISD
  1538                           _TRISD	set	0x8F
  1539  008F                     	global	_TRISC
  1540                           _TRISC	set	0x8E
  1541  008E                     	global	_TRISB
  1542                           _TRISB	set	0x8D
  1543  008D                     	global	_TRISA
  1544                           _TRISA	set	0x8C
  1545  008C                     	global	_TRISE
  1546                           _TRISE	set	0x90
  1547  0090                     	global	_WDTCON
  1548                           _WDTCON	set	0x97
  1549  0097                     	global	_OSCTUNE
  1550                           _OSCTUNE	set	0x98
  1551  0098                     	global	_OSCCON
  1552                           _OSCCON	set	0x99
  1553  0099                     	global	_TRISE2
  1554                           _TRISE2	set	0x482
  1555  0482                     	global	_TRISE1
  1556                           _TRISE1	set	0x481
  1557  0481                     	global	_TRISE0
  1558                           _TRISE0	set	0x480
  1559  0480                     	global	_APFCON
  1560                           _APFCON	set	0x11D
  1561  011D                     	global	_LATC
  1562                           _LATC	set	0x10E
  1563  010E                     	global	_LATB
  1564                           _LATB	set	0x10D
  1565  010D                     	global	_LATA
  1566                           _LATA	set	0x10C
  1567  010C                     	global	_LATD
  1568                           _LATD	set	0x10F
  1569  010F                     	global	_LATE
  1570                           _LATE	set	0x110
  1571  0110                     	global	_BORCON
  1572                           _BORCON	set	0x116
  1573  0116                     	global	_ANSELA
  1574                           _ANSELA	set	0x18C
  1575  018C                     	global	_ANSELE
  1576                           _ANSELE	set	0x190
  1577  0190                     	global	_ANSELB
  1578                           _ANSELB	set	0x18D
  1579  018D                     	global	_ANSELD
  1580                           _ANSELD	set	0x18F
  1581  018F                     	global	_WPUB
  1582                           _WPUB	set	0x20D
  1583  020D                     	global	_WPUE
  1584                           _WPUE	set	0x210
  1585  0210                     ; #config settings
  1586                           global __CFG_FOSC$INTOSC
  1587                           __CFG_FOSC$INTOSC equ 0x0
  1588  0000                     global __CFG_WDTE$OFF
  1589                           __CFG_WDTE$OFF equ 0x0
  1590  0000                     global __CFG_PWRTE$OFF
  1591                           __CFG_PWRTE$OFF equ 0x0
  1592  0000                     global __CFG_MCLRE$ON
  1593                           __CFG_MCLRE$ON equ 0x0
  1594  0000                     global __CFG_CP$OFF
  1595                           __CFG_CP$OFF equ 0x0
  1596  0000                     global __CFG_CPD$OFF
  1597                           __CFG_CPD$OFF equ 0x0
  1598  0000                     global __CFG_BOREN$ON
  1599                           __CFG_BOREN$ON equ 0x0
  1600  0000                     global __CFG_CLKOUTEN$OFF
  1601                           __CFG_CLKOUTEN$OFF equ 0x0
  1602  0000                     global __CFG_IESO$ON
  1603                           __CFG_IESO$ON equ 0x0
  1604  0000                     global __CFG_FCMEN$ON
  1605                           __CFG_FCMEN$ON equ 0x0
  1606  0000                     global __CFG_WRT$OFF
  1607                           __CFG_WRT$OFF equ 0x0
  1608  0000                     global __CFG_PLLEN$OFF
  1609                           __CFG_PLLEN$OFF equ 0x0
  1610  0000                     global __CFG_STVREN$ON
  1611                           __CFG_STVREN$ON equ 0x0
  1612  0000                     global __CFG_BORV$LO
  1613                           __CFG_BORV$LO equ 0x0
  1614  0000                     global __CFG_LVP$ON
  1615                           __CFG_LVP$ON equ 0x0
  1616  0000                     	file	"C:\Users\LENOVO\AppData\Local\Temp\slmk."
  1617                           	line	#
  1618                           psect cinit,class=CODE,delta=2
  1619                           global start_initialization
  1620                           start_initialization:
  1621  07FD                     
  1622                           global __initialization
  1623                           __initialization:
  1624  07FD                     psect cinit,class=CODE,delta=2,merge=1
  1625                           global end_of_initialization,__end_of__initialization
  1626                           
  1627                           ;End of C runtime variable initialization code
  1628                           
  1629                           end_of_initialization:
  1630  07FD                     __end_of__initialization:
  1631  07FD                     movlb 0
  1632  07FD  0020               ljmp _main	;jump to C main() function
  1633  07FE  3185  2D3D         psect	cstackCOMMON,class=COMMON,space=1,noexec
  1634                           global __pcstackCOMMON
  1635                           __pcstackCOMMON:
  1636  0070                     ?_PIN_MANAGER_Initialize:	; 1 bytes @ 0x0
  1637  0070                     ??_PIN_MANAGER_Initialize:	; 1 bytes @ 0x0
  1638  0070                     ?_OSCILLATOR_Initialize:	; 1 bytes @ 0x0
  1639  0070                     ??_OSCILLATOR_Initialize:	; 1 bytes @ 0x0
  1640  0070                     ?_WDT_Initialize:	; 1 bytes @ 0x0
  1641  0070                     ??_WDT_Initialize:	; 1 bytes @ 0x0
  1642  0070                     ?_SYSTEM_Initialize:	; 1 bytes @ 0x0
  1643  0070                     ??_SYSTEM_Initialize:	; 1 bytes @ 0x0
  1644  0070                     ?_spi_write:	; 1 bytes @ 0x0
  1645  0070                     ?_main:	; 1 bytes @ 0x0
  1646  0070                     	global	?___fldiv
  1647                           ?___fldiv:	; 4 bytes @ 0x0
  1648  0070                     	global	spi_write@data
  1649                           spi_write@data:	; 2 bytes @ 0x0
  1650  0070                     	global	___fldiv@a
  1651                           ___fldiv@a:	; 4 bytes @ 0x0
  1652  0070                     	ds	2
  1653  0070                     ??_spi_write:	; 1 bytes @ 0x2
  1654  0072                     	ds	1
  1655  0072                     	global	spi_write@i
  1656                           spi_write@i:	; 1 bytes @ 0x3
  1657  0073                     	ds	1
  1658  0073                     	global	___fldiv@b
  1659                           ___fldiv@b:	; 4 bytes @ 0x4
  1660  0074                     	ds	4
  1661  0074                     ??___fldiv:	; 1 bytes @ 0x8
  1662  0078                     	ds	5
  1663  0078                     ??_main:	; 1 bytes @ 0xD
  1664  007D                     psect	cstackBANK0,class=BANK0,space=1,noexec
  1665                           global __pcstackBANK0
  1666                           __pcstackBANK0:
  1667  0020                     	global	___fldiv@rem
  1668                           ___fldiv@rem:	; 4 bytes @ 0x0
  1669  0020                     	ds	4
  1670  0020                     	global	___fldiv@sign
  1671                           ___fldiv@sign:	; 1 bytes @ 0x4
  1672  0024                     	ds	1
  1673  0024                     	global	___fldiv@new_exp
  1674                           ___fldiv@new_exp:	; 2 bytes @ 0x5
  1675  0025                     	ds	2
  1676  0025                     	global	___fldiv@grs
  1677                           ___fldiv@grs:	; 4 bytes @ 0x7
  1678  0027                     	ds	4
  1679  0027                     	global	___fldiv@bexp
  1680                           ___fldiv@bexp:	; 1 bytes @ 0xB
  1681  002B                     	ds	1
  1682  002B                     	global	___fldiv@aexp
  1683                           ___fldiv@aexp:	; 1 bytes @ 0xC
  1684  002C                     	ds	1
  1685  002C                     	global	?___fltol
  1686                           ?___fltol:	; 4 bytes @ 0xD
  1687  002D                     	global	___fltol@f1
  1688                           ___fltol@f1:	; 4 bytes @ 0xD
  1689  002D                     	ds	4
  1690  002D                     ??___fltol:	; 1 bytes @ 0x11
  1691  0031                     	ds	5
  1692  0031                     	global	___fltol@sign1
  1693                           ___fltol@sign1:	; 1 bytes @ 0x16
  1694  0036                     	ds	1
  1695  0036                     	global	___fltol@exp1
  1696                           ___fltol@exp1:	; 1 bytes @ 0x17
  1697  0037                     	ds	1
  1698  0037                     ?_CalculateFreq:	; 1 bytes @ 0x18
  1699  0038                     	global	CalculateFreq@input
  1700                           CalculateFreq@input:	; 4 bytes @ 0x18
  1701  0038                     	ds	4
  1702  0038                     ??_CalculateFreq:	; 1 bytes @ 0x1C
  1703  003C                     	ds	5
  1704  003C                     ;!
  1705                           ;!Data Sizes:
  1706                           ;!    Strings     0
  1707                           ;!    Constant    0
  1708                           ;!    Data        0
  1709                           ;!    BSS         0
  1710                           ;!    Persistent  14
  1711                           ;!    Stack       0
  1712                           ;!
  1713                           ;!Auto Spaces:
  1714                           ;!    Space          Size  Autos    Used
  1715                           ;!    COMMON           14     13      13
  1716                           ;!    BANK0            80     33      47
  1717                           ;!    BANK1            80      0       0
  1718                           ;!    BANK2            80      0       0
  1719                           ;!    BANK3            80      0       0
  1720                           ;!    BANK4            80      0       0
  1721                           ;!    BANK5            80      0       0
  1722                           ;!    BANK6            16      0       0
  1723                           
  1724                           ;!
  1725                           ;!Pointer List with Targets:
  1726                           ;!
  1727                           ;!    None.
  1728                           
  1729                           
  1730                           ;!
  1731                           ;!Critical Paths under _main in COMMON
  1732                           ;!
  1733                           ;!    _CalculateFreq->___fldiv
  1734                           ;!    ___fltol->___fldiv
  1735                           ;!
  1736                           ;!Critical Paths under _main in BANK0
  1737                           ;!
  1738                           ;!    _main->_CalculateFreq
  1739                           ;!    _CalculateFreq->___fltol
  1740                           ;!    ___fltol->___fldiv
  1741                           ;!
  1742                           ;!Critical Paths under _main in BANK1
  1743                           ;!
  1744                           ;!    None.
  1745                           ;!
  1746                           ;!Critical Paths under _main in BANK2
  1747                           ;!
  1748                           ;!    None.
  1749                           ;!
  1750                           ;!Critical Paths under _main in BANK3
  1751                           ;!
  1752                           ;!    None.
  1753                           ;!
  1754                           ;!Critical Paths under _main in BANK4
  1755                           ;!
  1756                           ;!    None.
  1757                           ;!
  1758                           ;!Critical Paths under _main in BANK5
  1759                           ;!
  1760                           ;!    None.
  1761                           ;!
  1762                           ;!Critical Paths under _main in BANK6
  1763                           ;!
  1764                           ;!    None.
  1765                           
  1766 ;;
  1767 ;;Main: autosize = 0, tempsize = 0, incstack = 0, save=0
  1768 ;;
  1769                           
  1770                           ;!
  1771                           ;!Call Graph Tables:
  1772                           ;!
  1773                           ;! ---------------------------------------------------------------------------------
  1774                           ;! (Depth) Function   	        Calls       Base Space   Used Autos Params    Refs
  1775                           ;! ---------------------------------------------------------------------------------
  1776                           ;! (0) _main                                                 0     0      0    2147
  1777                           ;!                      _CalculateFreq
  1778                           ;!                  _SYSTEM_Initialize
  1779                           ;!                          _spi_write
  1780                           ;! ---------------------------------------------------------------------------------
  1781                           ;! (1) _spi_write                                            4     2      2     471
  1782                           ;!                                              0 COMMON     4     2      2
  1783                           ;! ---------------------------------------------------------------------------------
  1784                           ;! (1) _SYSTEM_Initialize                                    0     0      0       0
  1785                           ;!              _OSCILLATOR_Initialize
  1786                           ;!             _PIN_MANAGER_Initialize
  1787                           ;!                     _WDT_Initialize
  1788                           ;! ---------------------------------------------------------------------------------
  1789                           ;! (2) _WDT_Initialize                                       0     0      0       0
  1790                           ;! ---------------------------------------------------------------------------------
  1791                           ;! (2) _PIN_MANAGER_Initialize                               0     0      0       0
  1792                           ;! ---------------------------------------------------------------------------------
  1793                           ;! (2) _OSCILLATOR_Initialize                                0     0      0       0
  1794                           ;! ---------------------------------------------------------------------------------
  1795                           ;! (1) _CalculateFreq                                        9     5      4    1676
  1796                           ;!                                             24 BANK0      9     5      4
  1797                           ;!                            ___fldiv
  1798                           ;!                            ___fltol
  1799                           ;! ---------------------------------------------------------------------------------
  1800                           ;! (2) ___fltol                                             11     7      4     305
  1801                           ;!                                             13 BANK0     11     7      4
  1802                           ;!                            ___fldiv (ARG)
  1803                           ;! ---------------------------------------------------------------------------------
  1804                           ;! (2) ___fldiv                                             26    18      8    1273
  1805                           ;!                                              0 COMMON    13     5      8
  1806                           ;!                                              0 BANK0     13    13      0
  1807                           ;! ---------------------------------------------------------------------------------
  1808                           ;! Estimated maximum stack depth 2
  1809                           ;! ---------------------------------------------------------------------------------
  1810                           ;!
  1811                           ;! Call Graph Graphs:
  1812                           ;!
  1813                           ;! _main (ROOT)
  1814                           ;!   _CalculateFreq
  1815                           ;!     ___fldiv
  1816                           ;!     ___fltol
  1817                           ;!       ___fldiv (ARG)
  1818                           ;!   _SYSTEM_Initialize
  1819                           ;!     _OSCILLATOR_Initialize
  1820                           ;!     _PIN_MANAGER_Initialize
  1821                           ;!     _WDT_Initialize
  1822                           ;!   _spi_write
  1823                           ;!
  1824                           
  1825                           ;! Address spaces:
  1826                           
  1827                           ;!Name               Size   Autos  Total    Cost      Usage
  1828                           ;!BIGRAM             1F0      0       0       0        0.0%
  1829                           ;!EEDATA             100      0       0       0        0.0%
  1830                           ;!NULL                 0      0       0       0        0.0%
  1831                           ;!CODE                 0      0       0       0        0.0%
  1832                           ;!BITCOMMON            E      0       0       1        0.0%
  1833                           ;!BITSFR0              0      0       0       1        0.0%
  1834                           ;!SFR0                 0      0       0       1        0.0%
  1835                           ;!COMMON               E      D       D       2       92.9%
  1836                           ;!BITSFR1              0      0       0       2        0.0%
  1837                           ;!SFR1                 0      0       0       2        0.0%
  1838                           ;!BITSFR2              0      0       0       3        0.0%
  1839                           ;!SFR2                 0      0       0       3        0.0%
  1840                           ;!STACK                0      0       0       3        0.0%
  1841                           ;!BITSFR3              0      0       0       4        0.0%
  1842                           ;!SFR3                 0      0       0       4        0.0%
  1843                           ;!ABS                  0      0      3C       4        0.0%
  1844                           ;!BITBANK0            50      0       0       5        0.0%
  1845                           ;!BITSFR4              0      0       0       5        0.0%
  1846                           ;!SFR4                 0      0       0       5        0.0%
  1847                           ;!BANK0               50     21      2F       6       58.8%
  1848                           ;!BITSFR5              0      0       0       6        0.0%
  1849                           ;!SFR5                 0      0       0       6        0.0%
  1850                           ;!BITBANK1            50      0       0       7        0.0%
  1851                           ;!BITSFR6              0      0       0       7        0.0%
  1852                           ;!SFR6                 0      0       0       7        0.0%
  1853                           ;!BANK1               50      0       0       8        0.0%
  1854                           ;!BITSFR7              0      0       0       8        0.0%
  1855                           ;!SFR7                 0      0       0       8        0.0%
  1856                           ;!BITBANK2            50      0       0       9        0.0%
  1857                           ;!BITSFR8              0      0       0       9        0.0%
  1858                           ;!SFR8                 0      0       0       9        0.0%
  1859                           ;!BANK2               50      0       0      10        0.0%
  1860                           ;!BITSFR9              0      0       0      10        0.0%
  1861                           ;!SFR9                 0      0       0      10        0.0%
  1862                           ;!BITBANK3            50      0       0      11        0.0%
  1863                           ;!BITSFR10             0      0       0      11        0.0%
  1864                           ;!SFR10                0      0       0      11        0.0%
  1865                           ;!BANK3               50      0       0      12        0.0%
  1866                           ;!BITSFR11             0      0       0      12        0.0%
  1867                           ;!SFR11                0      0       0      12        0.0%
  1868                           ;!BITBANK4            50      0       0      13        0.0%
  1869                           ;!BITSFR12             0      0       0      13        0.0%
  1870                           ;!SFR12                0      0       0      13        0.0%
  1871                           ;!BANK4               50      0       0      14        0.0%
  1872                           ;!BITSFR13             0      0       0      14        0.0%
  1873                           ;!SFR13                0      0       0      14        0.0%
  1874                           ;!BITBANK5            50      0       0      15        0.0%
  1875                           ;!BITSFR14             0      0       0      15        0.0%
  1876                           ;!SFR14                0      0       0      15        0.0%
  1877                           ;!BANK5               50      0       0      16        0.0%
  1878                           ;!BITSFR15             0      0       0      16        0.0%
  1879                           ;!SFR15                0      0       0      16        0.0%
  1880                           ;!BITBANK6            10      0       0      17        0.0%
  1881                           ;!BITSFR16             0      0       0      17        0.0%
  1882                           ;!SFR16                0      0       0      17        0.0%
  1883                           ;!BANK6               10      0       0      18        0.0%
  1884                           ;!BITSFR17             0      0       0      18        0.0%
  1885                           ;!SFR17                0      0       0      18        0.0%
  1886                           ;!BITSFR18             0      0       0      19        0.0%
  1887                           ;!SFR18                0      0       0      19        0.0%
  1888                           ;!DATA                 0      0      3C      19        0.0%
  1889                           ;!BITSFR19             0      0       0      20        0.0%
  1890                           ;!SFR19                0      0       0      20        0.0%
  1891                           ;!BITSFR20             0      0       0      21        0.0%
  1892                           ;!SFR20                0      0       0      21        0.0%
  1893                           ;!BITSFR21             0      0       0      22        0.0%
  1894                           ;!SFR21                0      0       0      22        0.0%
  1895                           ;!BITSFR22             0      0       0      23        0.0%
  1896                           ;!SFR22                0      0       0      23        0.0%
  1897                           ;!BITSFR23             0      0       0      24        0.0%
  1898                           ;!SFR23                0      0       0      24        0.0%
  1899                           ;!BITSFR24             0      0       0      25        0.0%
  1900                           ;!SFR24                0      0       0      25        0.0%
  1901                           ;!BITSFR25             0      0       0      26        0.0%
  1902                           ;!SFR25                0      0       0      26        0.0%
  1903                           ;!BITSFR26             0      0       0      27        0.0%
  1904                           ;!SFR26                0      0       0      27        0.0%
  1905                           ;!BITSFR27             0      0       0      28        0.0%
  1906                           ;!SFR27                0      0       0      28        0.0%
  1907                           ;!BITSFR28             0      0       0      29        0.0%
  1908                           ;!SFR28                0      0       0      29        0.0%
  1909                           ;!BITSFR29             0      0       0      30        0.0%
  1910                           ;!SFR29                0      0       0      30        0.0%
  1911                           ;!BITSFR30             0      0       0      31        0.0%
  1912                           ;!SFR30                0      0       0      31        0.0%
  1913                           ;!BITSFR31             0      0       0      32        0.0%
  1914                           ;!SFR31                0      0       0      32        0.0%
  1915                           
  1916                           	global	_main
  1917                           
  1918 ;; *************** function _main *****************
  1919 ;; Defined at:
  1920 ;;		line 99 in file "main.c"
  1921 ;; Parameters:    Size  Location     Type
  1922 ;;		None
  1923 ;; Auto vars:     Size  Location     Type
  1924 ;;		None
  1925 ;; Return value:  Size  Location     Type
  1926 ;;                  1    wreg      void 
  1927 ;; Registers used:
  1928 ;;		wreg, status,2, status,0, pclath, cstack
  1929 ;; Tracked objects:
  1930 ;;		On entry : B1F/0
  1931 ;;		On exit  : 0/0
  1932 ;;		Unchanged: 0/0
  1933 ;; Data sizes:     COMMON   BANK0   BANK1   BANK2   BANK3   BANK4   BANK5   BANK6
  1934 ;;      Params:         0       0       0       0       0       0       0       0
  1935 ;;      Locals:         0       0       0       0       0       0       0       0
  1936 ;;      Temps:          0       0       0       0       0       0       0       0
  1937 ;;      Totals:         0       0       0       0       0       0       0       0
  1938 ;;Total ram usage:        0 bytes
  1939 ;; Hardware stack levels required when called:    2
  1940 ;; This function calls:
  1941 ;;		_CalculateFreq
  1942 ;;		_SYSTEM_Initialize
  1943 ;;		_spi_write
  1944 ;; This function is called by:
  1945 ;;		Startup code after reset
  1946 ;; This function uses a non-reentrant model
  1947 ;;
  1948                           psect	maintext,global,class=CODE,delta=2,merge=1,split=1,group=0
  1949                           	file	"main.c"
  1950                           	line	99
  1951                           global __pmaintext
  1952                           __pmaintext:	;psect for function _main
  1953  053D                     psect	maintext
  1954                           	file	"main.c"
  1955                           	line	99
  1956                           	global	__size_of_main
  1957                           	__size_of_main	equ	__end_of_main-_main
  1958  004C                     	
  1959                           _main:	
  1960  053D                     ;incstack = 0
  1961                           	opt	stack 14
  1962                           ; Regs used in _main: [wreg+status,2+status,0+pclath+cstack]
  1963                           	line	102
  1964                           	
  1965                           l1150:	
  1966  053D                     ;main.c: 102:     SYSTEM_Initialize();
  1967                           	fcall	_SYSTEM_Initialize
  1968  053D  3184  2495  3185   	line	105
  1969                           	
  1970                           l1152:	
  1971  0540                     ;main.c: 105:     TRISE0 = 0;
  1972                           	movlb 1	; select bank1
  1973  0540  0021               	bcf	(1152/8)^080h,(1152)&7	;volatile
  1974  0541  1010               	line	106
  1975                           	
  1976                           l1154:	
  1977  0542                     ;main.c: 106:     TRISE1 = 0;
  1978                           	bcf	(1153/8)^080h,(1153)&7	;volatile
  1979  0542  1090               	line	107
  1980                           	
  1981                           l1156:	
  1982  0543                     ;main.c: 107:     TRISE2 = 0;
  1983                           	bcf	(1154/8)^080h,(1154)&7	;volatile
  1984  0543  1110               	line	108
  1985                           	
  1986                           l1158:	
  1987  0544                     ;main.c: 108:     RE0 = 1;
  1988                           	movlb 0	; select bank0
  1989  0544  0020               	bsf	(128/8),(128)&7	;volatile
  1990  0545  1410               	line	109
  1991                           	
  1992                           l1160:	
  1993  0546                     ;main.c: 109:     RE1 = 1;
  1994                           	bsf	(129/8),(129)&7	;volatile
  1995  0546  1490               	line	112
  1996                           	
  1997                           l1162:	
  1998  0547                     ;main.c: 112:     RESET=0x2100;
  1999                           	movlw	0
  2000  0547  3000               	movwf	(_RESET)
  2001  0548  00C5               	movlw	021h
  2002  0549  3021               	movwf	((_RESET))+1
  2003  054A  00C6               	line	113
  2004                           	
  2005                           l1164:	
  2006  054B                     ;main.c: 113:     SET=0x2000;
  2007                           	movlw	0
  2008  054B  3000               	movwf	(_SET)
  2009  054C  00C3               	movlw	020h
  2010  054D  3020               	movwf	((_SET))+1
  2011  054E  00C4               	line	114
  2012                           	
  2013                           l1166:	
  2014  054F                     ;main.c: 114:     PHASE=0xC000;
  2015                           	movlw	0
  2016  054F  3000               	movwf	(_PHASE)
  2017  0550  00C1               	movlw	0C0h
  2018  0551  30C0               	movwf	((_PHASE))+1
  2019  0552  00C2               	line	115
  2020                           	
  2021                           l1168:	
  2022  0553                     ;main.c: 115:     CalculateFreq(21000);
  2023                           	movlw	0x46
  2024  0553  3046               	movwf	(CalculateFreq@input+3)
  2025  0554  00BB               	movlw	0xa4
  2026  0555  30A4               	movwf	(CalculateFreq@input+2)
  2027  0556  00BA               	movlw	0x10
  2028  0557  3010               	movwf	(CalculateFreq@input+1)
  2029  0558  00B9               	movlw	0x0
  2030  0559  3000               	movwf	(CalculateFreq@input)
  2031  055A  00B8               
  2032                           	fcall	_CalculateFreq
  2033  055B  3184  24F1  3185   	line	119
  2034                           	
  2035                           l1170:	
  2036  055E                     ;main.c: 119:     spi_write(RESET);
  2037                           	movlb 0	; select bank0
  2038  055E  0020               	movf	(_RESET+1),w
  2039  055F  0846               	movwf	(spi_write@data+1)
  2040  0560  00F1               	movf	(_RESET),w
  2041  0561  0845               	movwf	(spi_write@data)
  2042  0562  00F0               	fcall	_spi_write
  2043  0563  3184  24C1  3185   	line	120
  2044                           	
  2045                           l1172:	
  2046  0566                     ;main.c: 120:     spi_write(freqLSB);
  2047                           	movlb 0	; select bank0
  2048  0566  0020               	movf	(_freqLSB+1),w
  2049  0567  084E               	movwf	(spi_write@data+1)
  2050  0568  00F1               	movf	(_freqLSB),w
  2051  0569  084D               	movwf	(spi_write@data)
  2052  056A  00F0               	fcall	_spi_write
  2053  056B  3184  24C1  3185   	line	121
  2054                           	
  2055                           l1174:	
  2056  056E                     ;main.c: 121:     spi_write(freqMSB);
  2057                           	movlb 0	; select bank0
  2058  056E  0020               	movf	(_freqMSB+1),w
  2059  056F  0848               	movwf	(spi_write@data+1)
  2060  0570  00F1               	movf	(_freqMSB),w
  2061  0571  0847               	movwf	(spi_write@data)
  2062  0572  00F0               	fcall	_spi_write
  2063  0573  3184  24C1  3185   	line	122
  2064                           	
  2065                           l1176:	
  2066  0576                     ;main.c: 122:     spi_write(PHASE);
  2067                           	movlb 0	; select bank0
  2068  0576  0020               	movf	(_PHASE+1),w
  2069  0577  0842               	movwf	(spi_write@data+1)
  2070  0578  00F1               	movf	(_PHASE),w
  2071  0579  0841               	movwf	(spi_write@data)
  2072  057A  00F0               	fcall	_spi_write
  2073  057B  3184  24C1  3185   	line	123
  2074                           	
  2075                           l1178:	
  2076  057E                     ;main.c: 123:     spi_write(SET);
  2077                           	movlb 0	; select bank0
  2078  057E  0020               	movf	(_SET+1),w
  2079  057F  0844               	movwf	(spi_write@data+1)
  2080  0580  00F1               	movf	(_SET),w
  2081  0581  0843               	movwf	(spi_write@data)
  2082  0582  00F0               	fcall	_spi_write
  2083  0583  3184  24C1  3185   	line	125
  2084                           ;main.c: 125:     while(1)
  2085                           	
  2086                           l108:	
  2087  0586                     	line	128
  2088                           ;main.c: 126:     {;main.c: 128:     }
  2089                           	
  2090                           l109:	
  2091  0586                     	goto	l108
  2092  0586  2D86               	
  2093                           l110:	
  2094  0587                     	line	130
  2095                           	
  2096                           l111:	
  2097  0587                     	global	start
  2098                           	ljmp	start
  2099  0587  3180  2802         	opt stack 0
  2100                           GLOBAL	__end_of_main
  2101                           	__end_of_main:
  2102  0589                     	signat	_main,89
  2103                           	global	_spi_write
  2104                           
  2105 ;; *************** function _spi_write *****************
  2106 ;; Defined at:
  2107 ;;		line 62 in file "main.c"
  2108 ;; Parameters:    Size  Location     Type
  2109 ;;  data            2    0[COMMON] unsigned int 
  2110 ;; Auto vars:     Size  Location     Type
  2111 ;;  i               1    3[COMMON] unsigned char 
  2112 ;; Return value:  Size  Location     Type
  2113 ;;                  1    wreg      void 
  2114 ;; Registers used:
  2115 ;;		wreg, status,2, status,0
  2116 ;; Tracked objects:
  2117 ;;		On entry : 0/0
  2118 ;;		On exit  : 0/0
  2119 ;;		Unchanged: 0/0
  2120 ;; Data sizes:     COMMON   BANK0   BANK1   BANK2   BANK3   BANK4   BANK5   BANK6
  2121 ;;      Params:         2       0       0       0       0       0       0       0
  2122 ;;      Locals:         1       0       0       0       0       0       0       0
  2123 ;;      Temps:          1       0       0       0       0       0       0       0
  2124 ;;      Totals:         4       0       0       0       0       0       0       0
  2125 ;;Total ram usage:        4 bytes
  2126 ;; Hardware stack levels used:    1
  2127 ;; This function calls:
  2128 ;;		Nothing
  2129 ;; This function is called by:
  2130 ;;		_main
  2131 ;; This function uses a non-reentrant model
  2132 ;;
  2133                           psect	text1,local,class=CODE,delta=2,merge=1,group=0
  2134                           	line	62
  2135                           global __ptext1
  2136                           __ptext1:	;psect for function _spi_write
  2137  04C1                     psect	text1
  2138                           	file	"main.c"
  2139                           	line	62
  2140                           	global	__size_of_spi_write
  2141                           	__size_of_spi_write	equ	__end_of_spi_write-_spi_write
  2142  0030                     	
  2143                           _spi_write:	
  2144  04C1                     ;incstack = 0
  2145                           	opt	stack 15
  2146                           ; Regs used in _spi_write: [wreg+status,2+status,0]
  2147                           	line	63
  2148                           	
  2149                           l1122:	
  2150  04C1                     ;main.c: 62: void spi_write(unsigned int data);main.c: 63: { RE0=0;
  2151                           	movlb 0	; select bank0
  2152  04C1  0020               	bcf	(128/8),(128)&7	;volatile
  2153  04C2  1010               	line	64
  2154                           ;main.c: 64: _delay((unsigned long)((1)*(8000000/4000000.0)));
  2155                           		opt asmopt_push
  2156                           	opt asmopt_off
  2157                           	nop2	;2 cycle nop
  2158  04C3  3200               	opt asmopt_pop
  2159                           
  2160                           	line	65
  2161                           	
  2162                           l1124:	
  2163  04C4                     ;main.c: 65:     for(uint8_t i=0; i<16; i++)
  2164                           	clrf	(spi_write@i)
  2165  04C4  01F3               	
  2166                           l1126:	
  2167  04C5                     	movlw	low(010h)
  2168  04C5  3010               	subwf	(spi_write@i),w
  2169  04C6  0273               	skipc
  2170  04C7  1C03               	goto	u831
  2171  04C8  2CCA               	goto	u830
  2172  04C9  2CCB               u831:
  2173  04CA                     	goto	l96
  2174  04CA  2CCD               u830:
  2175  04CB                     	goto	l97
  2176  04CB  2CEA               	
  2177                           l1128:	
  2178  04CC                     	goto	l97
  2179  04CC  2CEA               	
  2180                           l96:	
  2181  04CD                     	line	67
  2182                           ;main.c: 66:  {;main.c: 67:         if (data&0x8000) RE2=1;
  2183                           	btfss	(spi_write@data+1),(15)&7
  2184  04CD  1FF1               	goto	u841
  2185  04CE  2CD0               	goto	u840
  2186  04CF  2CD1               u841:
  2187  04D0                     	goto	l98
  2188  04D0  2CD4               u840:
  2189  04D1                     	
  2190                           l1130:	
  2191  04D1                     	movlb 0	; select bank0
  2192  04D1  0020               	bsf	(130/8),(130)&7	;volatile
  2193  04D2  1510               	goto	l99
  2194  04D3  2CD6               	line	68
  2195                           ;main.c: 68:         else RE2=0;
  2196                           	
  2197                           l98:	
  2198  04D4                     	movlb 0	; select bank0
  2199  04D4  0020               	bcf	(130/8),(130)&7	;volatile
  2200  04D5  1110               	
  2201                           l99:	
  2202  04D6                     	line	69
  2203                           ;main.c: 69:         _delay((unsigned long)((1)*(8000000/4000000.0)));
  2204                           		opt asmopt_push
  2205                           	opt asmopt_off
  2206                           	nop2	;2 cycle nop
  2207  04D6  3200               	opt asmopt_pop
  2208                           
  2209                           	line	70
  2210                           ;main.c: 70:        RE1=0;
  2211                           	movlb 0	; select bank0
  2212  04D7  0020               	bcf	(129/8),(129)&7	;volatile
  2213  04D8  1090               	line	71
  2214                           ;main.c: 71:        _delay((unsigned long)((1)*(8000000/4000000.0)));
  2215                           		opt asmopt_push
  2216                           	opt asmopt_off
  2217                           	nop2	;2 cycle nop
  2218  04D9  3200               	opt asmopt_pop
  2219                           
  2220                           	line	72
  2221                           ;main.c: 72:        RE1=1;
  2222                           	movlb 0	; select bank0
  2223  04DA  0020               	bsf	(129/8),(129)&7	;volatile
  2224  04DB  1490               	line	73
  2225                           	
  2226                           l1132:	
  2227  04DC                     ;main.c: 73:        data=data<<1;
  2228                           	lslf	(spi_write@data),w
  2229  04DC  3570               	movwf	(spi_write@data)
  2230  04DD  00F0               	rlf	(spi_write@data+1),w
  2231  04DE  0D71               	movwf	1+(spi_write@data)
  2232  04DF  00F1               	line	74
  2233                           	
  2234                           l1134:	
  2235  04E0                     ;main.c: 74:  }
  2236                           	movlw	low(01h)
  2237  04E0  3001               	movwf	(??_spi_write+0)+0
  2238  04E1  00F2               	movf	(??_spi_write+0)+0,w
  2239  04E2  0872               	addwf	(spi_write@i),f
  2240  04E3  07F3               	
  2241                           l1136:	
  2242  04E4                     	movlw	low(010h)
  2243  04E4  3010               	subwf	(spi_write@i),w
  2244  04E5  0273               	skipc
  2245  04E6  1C03               	goto	u851
  2246  04E7  2CE9               	goto	u850
  2247  04E8  2CEA               u851:
  2248  04E9                     	goto	l96
  2249  04E9  2CCD               u850:
  2250  04EA                     	
  2251                           l97:	
  2252  04EA                     	line	75
  2253                           ;main.c: 75:     RE2=0;
  2254                           	movlb 0	; select bank0
  2255  04EA  0020               	bcf	(130/8),(130)&7	;volatile
  2256  04EB  1110               	line	76
  2257                           ;main.c: 76:     _delay((unsigned long)((1)*(8000000/4000000.0)));
  2258                           		opt asmopt_push
  2259                           	opt asmopt_off
  2260                           	nop2	;2 cycle nop
  2261  04EC  3200               	opt asmopt_pop
  2262                           
  2263                           	line	77
  2264                           ;main.c: 77:      RE0=1;
  2265                           	movlb 0	; select bank0
  2266  04ED  0020               	bsf	(128/8),(128)&7	;volatile
  2267  04EE  1410               	line	78
  2268                           ;main.c: 78:     _delay((unsigned long)((1)*(8000000/4000000.0)));
  2269                           		opt asmopt_push
  2270                           	opt asmopt_off
  2271                           	nop2	;2 cycle nop
  2272  04EF  3200               	opt asmopt_pop
  2273                           
  2274                           	line	80
  2275                           	
  2276                           l100:	
  2277  04F0                     	return
  2278  04F0  0008               	opt stack 0
  2279                           GLOBAL	__end_of_spi_write
  2280                           	__end_of_spi_write:
  2281  04F1                     	signat	_spi_write,4217
  2282                           	global	_SYSTEM_Initialize
  2283                           
  2284 ;; *************** function _SYSTEM_Initialize *****************
  2285 ;; Defined at:
  2286 ;;		line 50 in file "mcc_generated_files/mcc.c"
  2287 ;; Parameters:    Size  Location     Type
  2288 ;;		None
  2289 ;; Auto vars:     Size  Location     Type
  2290 ;;		None
  2291 ;; Return value:  Size  Location     Type
  2292 ;;                  1    wreg      void 
  2293 ;; Registers used:
  2294 ;;		wreg, status,2, status,0, pclath, cstack
  2295 ;; Tracked objects:
  2296 ;;		On entry : 0/0
  2297 ;;		On exit  : 0/0
  2298 ;;		Unchanged: 0/0
  2299 ;; Data sizes:     COMMON   BANK0   BANK1   BANK2   BANK3   BANK4   BANK5   BANK6
  2300 ;;      Params:         0       0       0       0       0       0       0       0
  2301 ;;      Locals:         0       0       0       0       0       0       0       0
  2302 ;;      Temps:          0       0       0       0       0       0       0       0
  2303 ;;      Totals:         0       0       0       0       0       0       0       0
  2304 ;;Total ram usage:        0 bytes
  2305 ;; Hardware stack levels used:    1
  2306 ;; Hardware stack levels required when called:    1
  2307 ;; This function calls:
  2308 ;;		_OSCILLATOR_Initialize
  2309 ;;		_PIN_MANAGER_Initialize
  2310 ;;		_WDT_Initialize
  2311 ;; This function is called by:
  2312 ;;		_main
  2313 ;; This function uses a non-reentrant model
  2314 ;;
  2315                           psect	text2,local,class=CODE,delta=2,merge=1,group=0
  2316                           	file	"mcc_generated_files/mcc.c"
  2317                           	line	50
  2318                           global __ptext2
  2319                           __ptext2:	;psect for function _SYSTEM_Initialize
  2320  0495                     psect	text2
  2321                           	file	"mcc_generated_files/mcc.c"
  2322                           	line	50
  2323                           	global	__size_of_SYSTEM_Initialize
  2324                           	__size_of_SYSTEM_Initialize	equ	__end_of_SYSTEM_Initialize-_SYSTEM_Initialize
  2325  000A                     	
  2326                           _SYSTEM_Initialize:	
  2327  0495                     ;incstack = 0
  2328                           	opt	stack 14
  2329                           ; Regs used in _SYSTEM_Initialize: [wreg+status,2+status,0+pclath+cstack]
  2330                           	line	53
  2331                           	
  2332                           l1120:	
  2333  0495                     ;mcc_generated_files/mcc.c: 53:     PIN_MANAGER_Initialize();
  2334                           	fcall	_PIN_MANAGER_Initialize
  2335  0495  3184  249F  3184   	line	54
  2336                           ;mcc_generated_files/mcc.c: 54:     OSCILLATOR_Initialize();
  2337                           	fcall	_OSCILLATOR_Initialize
  2338  0498  3184  248E  3184   	line	55
  2339                           ;mcc_generated_files/mcc.c: 55:     WDT_Initialize();
  2340                           	fcall	_WDT_Initialize
  2341  049B  3184  248A  3184   	line	56
  2342                           	
  2343                           l17:	
  2344  049E                     	return
  2345  049E  0008               	opt stack 0
  2346                           GLOBAL	__end_of_SYSTEM_Initialize
  2347                           	__end_of_SYSTEM_Initialize:
  2348  049F                     	signat	_SYSTEM_Initialize,89
  2349                           	global	_WDT_Initialize
  2350                           
  2351 ;; *************** function _WDT_Initialize *****************
  2352 ;; Defined at:
  2353 ;;		line 68 in file "mcc_generated_files/mcc.c"
  2354 ;; Parameters:    Size  Location     Type
  2355 ;;		None
  2356 ;; Auto vars:     Size  Location     Type
  2357 ;;		None
  2358 ;; Return value:  Size  Location     Type
  2359 ;;                  1    wreg      void 
  2360 ;; Registers used:
  2361 ;;		wreg
  2362 ;; Tracked objects:
  2363 ;;		On entry : 0/0
  2364 ;;		On exit  : 0/0
  2365 ;;		Unchanged: 0/0
  2366 ;; Data sizes:     COMMON   BANK0   BANK1   BANK2   BANK3   BANK4   BANK5   BANK6
  2367 ;;      Params:         0       0       0       0       0       0       0       0
  2368 ;;      Locals:         0       0       0       0       0       0       0       0
  2369 ;;      Temps:          0       0       0       0       0       0       0       0
  2370 ;;      Totals:         0       0       0       0       0       0       0       0
  2371 ;;Total ram usage:        0 bytes
  2372 ;; Hardware stack levels used:    1
  2373 ;; This function calls:
  2374 ;;		Nothing
  2375 ;; This function is called by:
  2376 ;;		_SYSTEM_Initialize
  2377 ;; This function uses a non-reentrant model
  2378 ;;
  2379                           psect	text3,local,class=CODE,delta=2,merge=1,group=0
  2380                           	line	68
  2381                           global __ptext3
  2382                           __ptext3:	;psect for function _WDT_Initialize
  2383  048A                     psect	text3
  2384                           	file	"mcc_generated_files/mcc.c"
  2385                           	line	68
  2386                           	global	__size_of_WDT_Initialize
  2387                           	__size_of_WDT_Initialize	equ	__end_of_WDT_Initialize-_WDT_Initialize
  2388  0004                     	
  2389                           _WDT_Initialize:	
  2390  048A                     ;incstack = 0
  2391                           	opt	stack 14
  2392                           ; Regs used in _WDT_Initialize: [wreg]
  2393                           	line	71
  2394                           	
  2395                           l942:	
  2396  048A                     ;mcc_generated_files/mcc.c: 71:     WDTCON = 0x16;
  2397                           	movlw	low(016h)
  2398  048A  3016               	movlb 1	; select bank1
  2399  048B  0021               	movwf	(151)^080h	;volatile
  2400  048C  0097               	line	72
  2401                           	
  2402                           l23:	
  2403  048D                     	return
  2404  048D  0008               	opt stack 0
  2405                           GLOBAL	__end_of_WDT_Initialize
  2406                           	__end_of_WDT_Initialize:
  2407  048E                     	signat	_WDT_Initialize,89
  2408                           	global	_PIN_MANAGER_Initialize
  2409                           
  2410 ;; *************** function _PIN_MANAGER_Initialize *****************
  2411 ;; Defined at:
  2412 ;;		line 57 in file "mcc_generated_files/pin_manager.c"
  2413 ;; Parameters:    Size  Location     Type
  2414 ;;		None
  2415 ;; Auto vars:     Size  Location     Type
  2416 ;;		None
  2417 ;; Return value:  Size  Location     Type
  2418 ;;                  1    wreg      void 
  2419 ;; Registers used:
  2420 ;;		wreg, status,2
  2421 ;; Tracked objects:
  2422 ;;		On entry : 0/0
  2423 ;;		On exit  : 0/0
  2424 ;;		Unchanged: 0/0
  2425 ;; Data sizes:     COMMON   BANK0   BANK1   BANK2   BANK3   BANK4   BANK5   BANK6
  2426 ;;      Params:         0       0       0       0       0       0       0       0
  2427 ;;      Locals:         0       0       0       0       0       0       0       0
  2428 ;;      Temps:          0       0       0       0       0       0       0       0
  2429 ;;      Totals:         0       0       0       0       0       0       0       0
  2430 ;;Total ram usage:        0 bytes
  2431 ;; Hardware stack levels used:    1
  2432 ;; This function calls:
  2433 ;;		Nothing
  2434 ;; This function is called by:
  2435 ;;		_SYSTEM_Initialize
  2436 ;; This function uses a non-reentrant model
  2437 ;;
  2438                           psect	text4,local,class=CODE,delta=2,merge=1,group=0
  2439                           	file	"mcc_generated_files/pin_manager.c"
  2440                           	line	57
  2441                           global __ptext4
  2442                           __ptext4:	;psect for function _PIN_MANAGER_Initialize
  2443  049F                     psect	text4
  2444                           	file	"mcc_generated_files/pin_manager.c"
  2445                           	line	57
  2446                           	global	__size_of_PIN_MANAGER_Initialize
  2447                           	__size_of_PIN_MANAGER_Initialize	equ	__end_of_PIN_MANAGER_Initialize-_PIN_MANAGER_Initi
                                 alize
  2448  0022                     	
  2449                           _PIN_MANAGER_Initialize:	
  2450  049F                     ;incstack = 0
  2451                           	opt	stack 14
  2452                           ; Regs used in _PIN_MANAGER_Initialize: [wreg+status,2]
  2453                           	line	62
  2454                           	
  2455                           l908:	
  2456  049F                     ;mcc_generated_files/pin_manager.c: 62:     LATE = 0x00;
  2457                           	movlb 2	; select bank2
  2458  049F  0022               	clrf	(272)^0100h	;volatile
  2459  04A0  0190               	line	63
  2460                           ;mcc_generated_files/pin_manager.c: 63:     LATD = 0x00;
  2461                           	clrf	(271)^0100h	;volatile
  2462  04A1  018F               	line	64
  2463                           ;mcc_generated_files/pin_manager.c: 64:     LATA = 0x00;
  2464                           	clrf	(268)^0100h	;volatile
  2465  04A2  018C               	line	65
  2466                           ;mcc_generated_files/pin_manager.c: 65:     LATB = 0x00;
  2467                           	clrf	(269)^0100h	;volatile
  2468  04A3  018D               	line	66
  2469                           ;mcc_generated_files/pin_manager.c: 66:     LATC = 0x00;
  2470                           	clrf	(270)^0100h	;volatile
  2471  04A4  018E               	line	71
  2472                           	
  2473                           l910:	
  2474  04A5                     ;mcc_generated_files/pin_manager.c: 71:     TRISE = 0x0F;
  2475                           	movlw	low(0Fh)
  2476  04A5  300F               	movlb 1	; select bank1
  2477  04A6  0021               	movwf	(144)^080h	;volatile
  2478  04A7  0090               	line	72
  2479                           	
  2480                           l912:	
  2481  04A8                     ;mcc_generated_files/pin_manager.c: 72:     TRISA = 0xFF;
  2482                           	movlw	low(0FFh)
  2483  04A8  30FF               	movwf	(140)^080h	;volatile
  2484  04A9  008C               	line	73
  2485                           	
  2486                           l914:	
  2487  04AA                     ;mcc_generated_files/pin_manager.c: 73:     TRISB = 0xFF;
  2488                           	movlw	low(0FFh)
  2489  04AA  30FF               	movwf	(141)^080h	;volatile
  2490  04AB  008D               	line	74
  2491                           	
  2492                           l916:	
  2493  04AC                     ;mcc_generated_files/pin_manager.c: 74:     TRISC = 0xFF;
  2494                           	movlw	low(0FFh)
  2495  04AC  30FF               	movwf	(142)^080h	;volatile
  2496  04AD  008E               	line	75
  2497                           	
  2498                           l918:	
  2499  04AE                     ;mcc_generated_files/pin_manager.c: 75:     TRISD = 0xFF;
  2500                           	movlw	low(0FFh)
  2501  04AE  30FF               	movwf	(143)^080h	;volatile
  2502  04AF  008F               	line	80
  2503                           	
  2504                           l920:	
  2505  04B0                     ;mcc_generated_files/pin_manager.c: 80:     ANSELD = 0xFF;
  2506                           	movlw	low(0FFh)
  2507  04B0  30FF               	movlb 3	; select bank3
  2508  04B1  0023               	movwf	(399)^0180h	;volatile
  2509  04B2  008F               	line	81
  2510                           	
  2511                           l922:	
  2512  04B3                     ;mcc_generated_files/pin_manager.c: 81:     ANSELB = 0x3F;
  2513                           	movlw	low(03Fh)
  2514  04B3  303F               	movwf	(397)^0180h	;volatile
  2515  04B4  008D               	line	82
  2516                           	
  2517                           l924:	
  2518  04B5                     ;mcc_generated_files/pin_manager.c: 82:     ANSELE = 0x07;
  2519                           	movlw	low(07h)
  2520  04B5  3007               	movwf	(400)^0180h	;volatile
  2521  04B6  0090               	line	83
  2522                           	
  2523                           l926:	
  2524  04B7                     ;mcc_generated_files/pin_manager.c: 83:     ANSELA = 0x3F;
  2525                           	movlw	low(03Fh)
  2526  04B7  303F               	movwf	(396)^0180h	;volatile
  2527  04B8  008C               	line	88
  2528                           	
  2529                           l928:	
  2530  04B9                     ;mcc_generated_files/pin_manager.c: 88:     WPUE = 0x00;
  2531                           	movlb 4	; select bank4
  2532  04B9  0024               	clrf	(528)^0200h	;volatile
  2533  04BA  0190               	line	89
  2534                           	
  2535                           l930:	
  2536  04BB                     ;mcc_generated_files/pin_manager.c: 89:     WPUB = 0x00;
  2537                           	clrf	(525)^0200h	;volatile
  2538  04BB  018D               	line	90
  2539                           	
  2540                           l932:	
  2541  04BC                     ;mcc_generated_files/pin_manager.c: 90:     OPTION_REGbits.nWPUEN = 1;
  2542                           	movlb 1	; select bank1
  2543  04BC  0021               	bsf	(149)^080h,7	;volatile
  2544  04BD  1795               	line	97
  2545                           	
  2546                           l934:	
  2547  04BE                     ;mcc_generated_files/pin_manager.c: 97:     APFCON = 0x00;
  2548                           	movlb 2	; select bank2
  2549  04BE  0022               	clrf	(285)^0100h	;volatile
  2550  04BF  019D               	line	104
  2551                           	
  2552                           l62:	
  2553  04C0                     	return
  2554  04C0  0008               	opt stack 0
  2555                           GLOBAL	__end_of_PIN_MANAGER_Initialize
  2556                           	__end_of_PIN_MANAGER_Initialize:
  2557  04C1                     	signat	_PIN_MANAGER_Initialize,89
  2558                           	global	_OSCILLATOR_Initialize
  2559                           
  2560 ;; *************** function _OSCILLATOR_Initialize *****************
  2561 ;; Defined at:
  2562 ;;		line 58 in file "mcc_generated_files/mcc.c"
  2563 ;; Parameters:    Size  Location     Type
  2564 ;;		None
  2565 ;; Auto vars:     Size  Location     Type
  2566 ;;		None
  2567 ;; Return value:  Size  Location     Type
  2568 ;;                  1    wreg      void 
  2569 ;; Registers used:
  2570 ;;		wreg, status,2
  2571 ;; Tracked objects:
  2572 ;;		On entry : 0/0
  2573 ;;		On exit  : 0/0
  2574 ;;		Unchanged: 0/0
  2575 ;; Data sizes:     COMMON   BANK0   BANK1   BANK2   BANK3   BANK4   BANK5   BANK6
  2576 ;;      Params:         0       0       0       0       0       0       0       0
  2577 ;;      Locals:         0       0       0       0       0       0       0       0
  2578 ;;      Temps:          0       0       0       0       0       0       0       0
  2579 ;;      Totals:         0       0       0       0       0       0       0       0
  2580 ;;Total ram usage:        0 bytes
  2581 ;; Hardware stack levels used:    1
  2582 ;; This function calls:
  2583 ;;		Nothing
  2584 ;; This function is called by:
  2585 ;;		_SYSTEM_Initialize
  2586 ;; This function uses a non-reentrant model
  2587 ;;
  2588                           psect	text5,local,class=CODE,delta=2,merge=1,group=0
  2589                           	file	"mcc_generated_files/mcc.c"
  2590                           	line	58
  2591                           global __ptext5
  2592                           __ptext5:	;psect for function _OSCILLATOR_Initialize
  2593  048E                     psect	text5
  2594                           	file	"mcc_generated_files/mcc.c"
  2595                           	line	58
  2596                           	global	__size_of_OSCILLATOR_Initialize
  2597                           	__size_of_OSCILLATOR_Initialize	equ	__end_of_OSCILLATOR_Initialize-_OSCILLATOR_Initiali
                                 ze
  2598  0007                     	
  2599                           _OSCILLATOR_Initialize:	
  2600  048E                     ;incstack = 0
  2601                           	opt	stack 14
  2602                           ; Regs used in _OSCILLATOR_Initialize: [wreg+status,2]
  2603                           	line	61
  2604                           	
  2605                           l936:	
  2606  048E                     ;mcc_generated_files/mcc.c: 61:     OSCCON = 0x70;
  2607                           	movlw	low(070h)
  2608  048E  3070               	movlb 1	; select bank1
  2609  048F  0021               	movwf	(153)^080h	;volatile
  2610  0490  0099               	line	63
  2611                           	
  2612                           l938:	
  2613  0491                     ;mcc_generated_files/mcc.c: 63:     OSCTUNE = 0x00;
  2614                           	clrf	(152)^080h	;volatile
  2615  0491  0198               	line	65
  2616                           	
  2617                           l940:	
  2618  0492                     ;mcc_generated_files/mcc.c: 65:     BORCON = 0x00;
  2619                           	movlb 2	; select bank2
  2620  0492  0022               	clrf	(278)^0100h	;volatile
  2621  0493  0196               	line	66
  2622                           	
  2623                           l20:	
  2624  0494                     	return
  2625  0494  0008               	opt stack 0
  2626                           GLOBAL	__end_of_OSCILLATOR_Initialize
  2627                           	__end_of_OSCILLATOR_Initialize:
  2628  0495                     	signat	_OSCILLATOR_Initialize,89
  2629                           	global	_CalculateFreq
  2630                           
  2631 ;; *************** function _CalculateFreq *****************
  2632 ;; Defined at:
  2633 ;;		line 84 in file "main.c"
  2634 ;; Parameters:    Size  Location     Type
  2635 ;;  input           4   24[BANK0 ] float 
  2636 ;; Auto vars:     Size  Location     Type
  2637 ;;		None
  2638 ;; Return value:  Size  Location     Type
  2639 ;;                  1    wreg      void 
  2640 ;; Registers used:
  2641 ;;		wreg, status,2, status,0, pclath, cstack
  2642 ;; Tracked objects:
  2643 ;;		On entry : 0/0
  2644 ;;		On exit  : 0/0
  2645 ;;		Unchanged: 0/0
  2646 ;; Data sizes:     COMMON   BANK0   BANK1   BANK2   BANK3   BANK4   BANK5   BANK6
  2647 ;;      Params:         0       4       0       0       0       0       0       0
  2648 ;;      Locals:         0       0       0       0       0       0       0       0
  2649 ;;      Temps:          0       5       0       0       0       0       0       0
  2650 ;;      Totals:         0       9       0       0       0       0       0       0
  2651 ;;Total ram usage:        9 bytes
  2652 ;; Hardware stack levels used:    1
  2653 ;; Hardware stack levels required when called:    1
  2654 ;; This function calls:
  2655 ;;		___fldiv
  2656 ;;		___fltol
  2657 ;; This function is called by:
  2658 ;;		_main
  2659 ;; This function uses a non-reentrant model
  2660 ;;
  2661                           psect	text6,local,class=CODE,delta=2,merge=1,group=0
  2662                           	file	"main.c"
  2663                           	line	84
  2664                           global __ptext6
  2665                           __ptext6:	;psect for function _CalculateFreq
  2666  04F1                     psect	text6
  2667                           	file	"main.c"
  2668                           	line	84
  2669                           	global	__size_of_CalculateFreq
  2670                           	__size_of_CalculateFreq	equ	__end_of_CalculateFreq-_CalculateFreq
  2671  004C                     	
  2672                           _CalculateFreq:	
  2673  04F1                     ;incstack = 0
  2674                           	opt	stack 14
  2675                           ; Regs used in _CalculateFreq: [wreg+status,2+status,0+pclath+cstack]
  2676                           	line	86
  2677                           	
  2678                           l1138:	
  2679  04F1                     ;main.c: 84: void CalculateFreq(float input);main.c: 85: {;main.c: 86:     freq= input/0
                                 .0596;
  2680                           	movlb 0	; select bank0
  2681  04F1  0020               	movf	(CalculateFreq@input+3),w
  2682  04F2  083B               	movwf	(___fldiv@b+3)
  2683  04F3  00F7               	movf	(CalculateFreq@input+2),w
  2684  04F4  083A               	movwf	(___fldiv@b+2)
  2685  04F5  00F6               	movf	(CalculateFreq@input+1),w
  2686  04F6  0839               	movwf	(___fldiv@b+1)
  2687  04F7  00F5               	movf	(CalculateFreq@input),w
  2688  04F8  0838               	movwf	(___fldiv@b)
  2689  04F9  00F4               
  2690                           	movlw	0x3d
  2691  04FA  303D               	movwf	(___fldiv@a+3)
  2692  04FB  00F3               	movlw	0x74
  2693  04FC  3074               	movwf	(___fldiv@a+2)
  2694  04FD  00F2               	movlw	0x1f
  2695  04FE  301F               	movwf	(___fldiv@a+1)
  2696  04FF  00F1               	movlw	0x21
  2697  0500  3021               	movwf	(___fldiv@a)
  2698  0501  00F0               
  2699                           	fcall	___fldiv
  2700  0502  3186  261E  3184   	movf	(3+(?___fldiv)),w
  2701  0505  0873               	movlb 0	; select bank0
  2702  0506  0020               	movwf	(___fltol@f1+3)
  2703  0507  00B0               	movf	(2+(?___fldiv)),w
  2704  0508  0872               	movwf	(___fltol@f1+2)
  2705  0509  00AF               	movf	(1+(?___fldiv)),w
  2706  050A  0871               	movwf	(___fltol@f1+1)
  2707  050B  00AE               	movf	(0+(?___fldiv)),w
  2708  050C  0870               	movwf	(___fltol@f1)
  2709  050D  00AD               
  2710                           	fcall	___fltol
  2711  050E  3185  2589  3184   	movlb 0	; select bank0
  2712  0511  0020               	movf	(3+(?___fltol)),w
  2713  0512  0830               	movwf	(_freq+3)
  2714  0513  00CC               	movf	(2+(?___fltol)),w
  2715  0514  082F               	movwf	(_freq+2)
  2716  0515  00CB               	movf	(1+(?___fltol)),w
  2717  0516  082E               	movwf	(_freq+1)
  2718  0517  00CA               	movf	(0+(?___fltol)),w
  2719  0518  082D               	movwf	(_freq)
  2720  0519  00C9               
  2721                           	line	88
  2722                           	
  2723                           l1140:	
  2724  051A                     ;main.c: 88:     freqMSB = freq &~0xC000;
  2725                           	movlw	0FFh
  2726  051A  30FF               	andwf	(_freq),w
  2727  051B  0549               	movwf	(_freqMSB)
  2728  051C  00C7               	movlw	03Fh
  2729  051D  303F               	andwf	(_freq+1),w
  2730  051E  054A               	movwf	1+(_freqMSB)
  2731  051F  00C8               	line	89
  2732                           	
  2733                           l1142:	
  2734  0520                     ;main.c: 89:     freqMSB |=0x4000;
  2735                           	bsf	(_freqMSB)+(14/8),(14)&7
  2736  0520  1748               	line	91
  2737                           	
  2738                           l1144:	
  2739  0521                     ;main.c: 91:     freqLSB = freq>>14;
  2740                           	movf	(_freq),w
  2741  0521  0849               	movwf	(??_CalculateFreq+0)+0
  2742  0522  00BC               	movf	(_freq+1),w
  2743  0523  084A               	movwf	((??_CalculateFreq+0)+0+1)
  2744  0524  00BD               	movf	(_freq+2),w
  2745  0525  084B               	movwf	((??_CalculateFreq+0)+0+2)
  2746  0526  00BE               	movf	(_freq+3),w
  2747  0527  084C               	movwf	((??_CalculateFreq+0)+0+3)
  2748  0528  00BF               	movlw	0Eh
  2749  0529  300E               	movwf	(??_CalculateFreq+4)+0
  2750  052A  00C0               u865:
  2751  052B                     	asrf	(??_CalculateFreq+0)+3,f
  2752  052B  37BF               	rrf	(??_CalculateFreq+0)+2,f
  2753  052C  0CBE               	rrf	(??_CalculateFreq+0)+1,f
  2754  052D  0CBD               	rrf	(??_CalculateFreq+0)+0,f
  2755  052E  0CBC               u860:
  2756  052F                     	decfsz	(??_CalculateFreq+4)+0,f
  2757  052F  0BC0               	goto	u865
  2758  0530  2D2B               	movf	1+(??_CalculateFreq+0)+0,w
  2759  0531  083D               	movwf	(_freqLSB+1)
  2760  0532  00CE               	movf	0+(??_CalculateFreq+0)+0,w
  2761  0533  083C               	movwf	(_freqLSB)
  2762  0534  00CD               	line	92
  2763                           	
  2764                           l1146:	
  2765  0535                     ;main.c: 92:     freqLSB = freqLSB &~0xC000;
  2766                           	movlw	0FFh
  2767  0535  30FF               	andwf	(_freqLSB),w
  2768  0536  054D               	movwf	(_freqLSB)
  2769  0537  00CD               	movlw	03Fh
  2770  0538  303F               	andwf	(_freqLSB+1),w
  2771  0539  054E               	movwf	1+(_freqLSB)
  2772  053A  00CE               	line	93
  2773                           	
  2774                           l1148:	
  2775  053B                     ;main.c: 93:     freqLSB |=0x4000;
  2776                           	bsf	(_freqLSB)+(14/8),(14)&7
  2777  053B  174E               	line	96
  2778                           	
  2779                           l103:	
  2780  053C                     	return
  2781  053C  0008               	opt stack 0
  2782                           GLOBAL	__end_of_CalculateFreq
  2783                           	__end_of_CalculateFreq:
  2784  053D                     	signat	_CalculateFreq,4217
  2785                           	global	___fltol
  2786                           
  2787 ;; *************** function ___fltol *****************
  2788 ;; Defined at:
  2789 ;;		line 43 in file "C:\Program Files (x86)\Microchip\xc8\v2.00\pic\sources\c99\common\fltol.c"
  2790 ;; Parameters:    Size  Location     Type
  2791 ;;  f1              4   13[BANK0 ] void 
  2792 ;; Auto vars:     Size  Location     Type
  2793 ;;  exp1            1   23[BANK0 ] unsigned char 
  2794 ;;  sign1           1   22[BANK0 ] unsigned char 
  2795 ;; Return value:  Size  Location     Type
  2796 ;;                  4   13[BANK0 ] long 
  2797 ;; Registers used:
  2798 ;;		wreg, status,2, status,0
  2799 ;; Tracked objects:
  2800 ;;		On entry : 0/0
  2801 ;;		On exit  : 0/0
  2802 ;;		Unchanged: 0/0
  2803 ;; Data sizes:     COMMON   BANK0   BANK1   BANK2   BANK3   BANK4   BANK5   BANK6
  2804 ;;      Params:         0       4       0       0       0       0       0       0
  2805 ;;      Locals:         0       2       0       0       0       0       0       0
  2806 ;;      Temps:          0       5       0       0       0       0       0       0
  2807 ;;      Totals:         0      11       0       0       0       0       0       0
  2808 ;;Total ram usage:       11 bytes
  2809 ;; Hardware stack levels used:    1
  2810 ;; This function calls:
  2811 ;;		Nothing
  2812 ;; This function is called by:
  2813 ;;		_CalculateFreq
  2814 ;; This function uses a non-reentrant model
  2815 ;;
  2816                           psect	text7,local,class=CODE,delta=2,merge=1,group=1
  2817                           	file	"C:\Program Files (x86)\Microchip\xc8\v2.00\pic\sources\c99\common\fltol.c"
  2818                           	line	43
  2819                           global __ptext7
  2820                           __ptext7:	;psect for function ___fltol
  2821  0589                     psect	text7
  2822                           	file	"C:\Program Files (x86)\Microchip\xc8\v2.00\pic\sources\c99\common\fltol.c"
  2823                           	line	43
  2824                           	global	__size_of___fltol
  2825                           	__size_of___fltol	equ	__end_of___fltol-___fltol
  2826  0095                     	
  2827                           ___fltol:	
  2828  0589                     ;incstack = 0
  2829                           	opt	stack 14
  2830                           ; Regs used in ___fltol: [wreg+status,2+status,0]
  2831                           	line	47
  2832                           	
  2833                           l944:	
  2834  0589                     	movlb 0	; select bank0
  2835  0589  0020               	movf	(___fltol@f1),w
  2836  058A  082D               	movwf	(??___fltol+0)+0
  2837  058B  00B1               	movf	(___fltol@f1+1),w
  2838  058C  082E               	movwf	((??___fltol+0)+0+1)
  2839  058D  00B2               	movf	(___fltol@f1+2),w
  2840  058E  082F               	movwf	((??___fltol+0)+0+2)
  2841  058F  00B3               	movf	(___fltol@f1+3),w
  2842  0590  0830               	movwf	((??___fltol+0)+0+3)
  2843  0591  00B4               	clrc
  2844  0592  1003               	rlf	(??___fltol+0)+2,w
  2845  0593  0D33               	rlf	(??___fltol+0)+3,w
  2846  0594  0D34               	movwf	(??___fltol+4)+0
  2847  0595  00B5               	movf	(??___fltol+4)+0,w
  2848  0596  0835               	movwf	(___fltol@exp1)
  2849  0597  00B7               	movf	(((___fltol@exp1))),w
  2850  0598  0837               	btfss	status,2
  2851  0599  1D03               	goto	u441
  2852  059A  2D9C               	goto	u440
  2853  059B  2D9D               u441:
  2854  059C                     	goto	l950
  2855  059C  2DA7               u440:
  2856  059D                     	line	48
  2857                           	
  2858                           l946:	
  2859  059D                     	movlw	high highword(0)
  2860  059D  3000               	movwf	(?___fltol+3)
  2861  059E  00B0               	movlw	low highword(0)
  2862  059F  3000               	movwf	(?___fltol+2)
  2863  05A0  00AF               	movlw	high(0)
  2864  05A1  3000               	movwf	(?___fltol+1)
  2865  05A2  00AE               	movlw	low(0)
  2866  05A3  3000               	movwf	(?___fltol)
  2867  05A4  00AD               
  2868                           	goto	l391
  2869  05A5  2E1D               	
  2870                           l948:	
  2871  05A6                     	goto	l391
  2872  05A6  2E1D               	
  2873                           l390:	
  2874  05A7                     	line	49
  2875                           	
  2876                           l950:	
  2877  05A7                     	movf	(___fltol@f1),w
  2878  05A7  082D               	movwf	(??___fltol+0)+0
  2879  05A8  00B1               	movf	(___fltol@f1+1),w
  2880  05A9  082E               	movwf	((??___fltol+0)+0+1)
  2881  05AA  00B2               	movf	(___fltol@f1+2),w
  2882  05AB  082F               	movwf	((??___fltol+0)+0+2)
  2883  05AC  00B3               	movf	(___fltol@f1+3),w
  2884  05AD  0830               	movwf	((??___fltol+0)+0+3)
  2885  05AE  00B4               	movlw	01Fh
  2886  05AF  301F               u455:
  2887  05B0                     	lsrf	(??___fltol+0)+3,f
  2888  05B0  36B4               	rrf	(??___fltol+0)+2,f
  2889  05B1  0CB3               	rrf	(??___fltol+0)+1,f
  2890  05B2  0CB2               	rrf	(??___fltol+0)+0,f
  2891  05B3  0CB1               u450:
  2892  05B4                     	decfsz	wreg,f
  2893  05B4  0B89               	goto	u455
  2894  05B5  2DB0               	movf	0+(??___fltol+0)+0,w
  2895  05B6  0831               	movwf	(??___fltol+4)+0
  2896  05B7  00B5               	movf	(??___fltol+4)+0,w
  2897  05B8  0835               	movwf	(___fltol@sign1)
  2898  05B9  00B6               	line	50
  2899                           	
  2900                           l952:	
  2901  05BA                     	bsf	(___fltol@f1)+(23/8),(23)&7
  2902  05BA  17AF               	line	51
  2903                           	
  2904                           l954:	
  2905  05BB                     	movlw	0FFh
  2906  05BB  30FF               	andwf	(___fltol@f1),f
  2907  05BC  05AD               	movlw	0FFh
  2908  05BD  30FF               	andwf	(___fltol@f1+1),f
  2909  05BE  05AE               	movlw	0FFh
  2910  05BF  30FF               	andwf	(___fltol@f1+2),f
  2911  05C0  05AF               	movlw	0
  2912  05C1  3000               	andwf	(___fltol@f1+3),f
  2913  05C2  05B0               	line	52
  2914                           	
  2915                           l956:	
  2916  05C3                     	movlw	096h
  2917  05C3  3096               	subwf	(___fltol@exp1),f
  2918  05C4  02B7               	line	53
  2919                           	
  2920                           l958:	
  2921  05C5                     	btfss	(___fltol@exp1),7
  2922  05C5  1FB7               	goto	u461
  2923  05C6  2DC8               	goto	u460
  2924  05C7  2DC9               u461:
  2925  05C8                     	goto	l968
  2926  05C8  2DEC               u460:
  2927  05C9                     	line	54
  2928                           	
  2929                           l960:	
  2930  05C9                     	movf	(___fltol@exp1),w
  2931  05C9  0837               	xorlw	80h
  2932  05CA  3A80               	addlw	-((-23)^80h)
  2933  05CB  3E97               	skipnc
  2934  05CC  1803               	goto	u471
  2935  05CD  2DCF               	goto	u470
  2936  05CE  2DD0               u471:
  2937  05CF                     	goto	l966
  2938  05CF  2DDB               u470:
  2939  05D0                     	line	55
  2940                           	
  2941                           l962:	
  2942  05D0                     	movlw	high highword(0)
  2943  05D0  3000               	movwf	(?___fltol+3)
  2944  05D1  00B0               	movlw	low highword(0)
  2945  05D2  3000               	movwf	(?___fltol+2)
  2946  05D3  00AF               	movlw	high(0)
  2947  05D4  3000               	movwf	(?___fltol+1)
  2948  05D5  00AE               	movlw	low(0)
  2949  05D6  3000               	movwf	(?___fltol)
  2950  05D7  00AD               
  2951                           	goto	l391
  2952  05D8  2E1D               	
  2953                           l964:	
  2954  05D9                     	goto	l391
  2955  05D9  2E1D               	
  2956                           l393:	
  2957  05DA                     	goto	l966
  2958  05DA  2DDB               	line	56
  2959                           	
  2960                           l394:	
  2961  05DB                     	line	57
  2962                           	
  2963                           l966:	
  2964  05DB                     	movlw	01h
  2965  05DB  3001               u485:
  2966  05DC                     	lsrf	(___fltol@f1+3),f
  2967  05DC  36B0               	rrf	(___fltol@f1+2),f
  2968  05DD  0CAF               	rrf	(___fltol@f1+1),f
  2969  05DE  0CAE               	rrf	(___fltol@f1),f
  2970  05DF  0CAD               	decfsz	wreg,f
  2971  05E0  0B89               	goto	u485
  2972  05E1  2DDC               
  2973                           	movlw	low(01h)
  2974  05E2  3001               	movwf	(??___fltol+0)+0
  2975  05E3  00B1               	movf	(??___fltol+0)+0,w
  2976  05E4  0831               	addwf	(___fltol@exp1),f
  2977  05E5  07B7               	btfss	status,2
  2978  05E6  1D03               	goto	u491
  2979  05E7  2DE9               	goto	u490
  2980  05E8  2DEA               u491:
  2981  05E9                     	goto	l966
  2982  05E9  2DDB               u490:
  2983  05EA                     	goto	l976
  2984  05EA  2E0D               	
  2985                           l395:	
  2986  05EB                     	line	59
  2987                           	goto	l976
  2988  05EB  2E0D               	
  2989                           l392:	
  2990  05EC                     	line	60
  2991                           	
  2992                           l968:	
  2993  05EC                     	movlw	low(020h)
  2994  05EC  3020               	subwf	(___fltol@exp1),w
  2995  05ED  0237               	skipc
  2996  05EE  1C03               	goto	u501
  2997  05EF  2DF1               	goto	u500
  2998  05F0  2DF2               u501:
  2999  05F1                     	goto	l398
  3000  05F1  2E06               u500:
  3001  05F2                     	line	61
  3002                           	
  3003                           l970:	
  3004  05F2                     	movlw	high highword(0)
  3005  05F2  3000               	movwf	(?___fltol+3)
  3006  05F3  00B0               	movlw	low highword(0)
  3007  05F4  3000               	movwf	(?___fltol+2)
  3008  05F5  00AF               	movlw	high(0)
  3009  05F6  3000               	movwf	(?___fltol+1)
  3010  05F7  00AE               	movlw	low(0)
  3011  05F8  3000               	movwf	(?___fltol)
  3012  05F9  00AD               
  3013                           	goto	l391
  3014  05FA  2E1D               	
  3015                           l972:	
  3016  05FB                     	goto	l391
  3017  05FB  2E1D               	
  3018                           l397:	
  3019  05FC                     	line	62
  3020                           	goto	l398
  3021  05FC  2E06               	
  3022                           l399:	
  3023  05FD                     	line	63
  3024                           	
  3025                           l974:	
  3026  05FD                     	movlw	01h
  3027  05FD  3001               u515:
  3028  05FE                     	lslf	(___fltol@f1),f
  3029  05FE  35AD               	rlf	(___fltol@f1+1),f
  3030  05FF  0DAE               	rlf	(___fltol@f1+2),f
  3031  0600  0DAF               	rlf	(___fltol@f1+3),f
  3032  0601  0DB0               	decfsz	wreg,f
  3033  0602  0B89               	goto	u515
  3034  0603  2DFE               	line	64
  3035                           	movlw	01h
  3036  0604  3001               	subwf	(___fltol@exp1),f
  3037  0605  02B7               	line	65
  3038                           	
  3039                           l398:	
  3040  0606                     	line	62
  3041                           	movf	((___fltol@exp1)),w
  3042  0606  0837               	btfss	status,2
  3043  0607  1D03               	goto	u521
  3044  0608  2E0A               	goto	u520
  3045  0609  2E0B               u521:
  3046  060A                     	goto	l974
  3047  060A  2DFD               u520:
  3048  060B                     	goto	l976
  3049  060B  2E0D               	
  3050                           l400:	
  3051  060C                     	goto	l976
  3052  060C  2E0D               	line	66
  3053                           	
  3054                           l396:	
  3055  060D                     	line	67
  3056                           	
  3057                           l976:	
  3058  060D                     	movf	((___fltol@sign1)),w
  3059  060D  0836               	btfsc	status,2
  3060  060E  1903               	goto	u531
  3061  060F  2E11               	goto	u530
  3062  0610  2E12               u531:
  3063  0611                     	goto	l401
  3064  0611  2E1D               u530:
  3065  0612                     	line	68
  3066                           	
  3067                           l978:	
  3068  0612                     	comf	(___fltol@f1),f
  3069  0612  09AD               	comf	(___fltol@f1+1),f
  3070  0613  09AE               	comf	(___fltol@f1+2),f
  3071  0614  09AF               	comf	(___fltol@f1+3),f
  3072  0615  09B0               	incf	(___fltol@f1),f
  3073  0616  0AAD               	skipnz
  3074  0617  1903               	incf	(___fltol@f1+1),f
  3075  0618  0AAE               	skipnz
  3076  0619  1903               	incf	(___fltol@f1+2),f
  3077  061A  0AAF               	skipnz
  3078  061B  1903               	incf	(___fltol@f1+3),f
  3079  061C  0AB0               	
  3080                           l401:	
  3081  061D                     	line	69
  3082                           	line	70
  3083                           	
  3084                           l391:	
  3085  061D                     	return
  3086  061D  0008               	opt stack 0
  3087                           GLOBAL	__end_of___fltol
  3088                           	__end_of___fltol:
  3089  061E                     	signat	___fltol,4220
  3090                           	global	___fldiv
  3091                           
  3092 ;; *************** function ___fldiv *****************
  3093 ;; Defined at:
  3094 ;;		line 8 in file "C:\Program Files (x86)\Microchip\xc8\v2.00\pic\sources\c99\common\sprcdiv.c"
  3095 ;; Parameters:    Size  Location     Type
  3096 ;;  a               4    0[COMMON] long 
  3097 ;;  b               4    4[COMMON] long 
  3098 ;; Auto vars:     Size  Location     Type
  3099 ;;  grs             4    7[BANK0 ] unsigned long 
  3100 ;;  rem             4    0[BANK0 ] unsigned long 
  3101 ;;  new_exp         2    5[BANK0 ] int 
  3102 ;;  aexp            1   12[BANK0 ] unsigned char 
  3103 ;;  bexp            1   11[BANK0 ] unsigned char 
  3104 ;;  sign            1    4[BANK0 ] unsigned char 
  3105 ;; Return value:  Size  Location     Type
  3106 ;;                  4    0[COMMON] unsigned char 
  3107 ;; Registers used:
  3108 ;;		wreg, status,2, status,0
  3109 ;; Tracked objects:
  3110 ;;		On entry : 0/0
  3111 ;;		On exit  : 0/0
  3112 ;;		Unchanged: 0/0
  3113 ;; Data sizes:     COMMON   BANK0   BANK1   BANK2   BANK3   BANK4   BANK5   BANK6
  3114 ;;      Params:         8       0       0       0       0       0       0       0
  3115 ;;      Locals:         0      13       0       0       0       0       0       0
  3116 ;;      Temps:          5       0       0       0       0       0       0       0
  3117 ;;      Totals:        13      13       0       0       0       0       0       0
  3118 ;;Total ram usage:       26 bytes
  3119 ;; Hardware stack levels used:    1
  3120 ;; This function calls:
  3121 ;;		Nothing
  3122 ;; This function is called by:
  3123 ;;		_CalculateFreq
  3124 ;; This function uses a non-reentrant model
  3125 ;;
  3126                           psect	text8,local,class=CODE,delta=2,merge=1,group=1
  3127                           	file	"C:\Program Files (x86)\Microchip\xc8\v2.00\pic\sources\c99\common\sprcdiv.c"
  3128                           	line	8
  3129                           global __ptext8
  3130                           __ptext8:	;psect for function ___fldiv
  3131  061E                     psect	text8
  3132                           	file	"C:\Program Files (x86)\Microchip\xc8\v2.00\pic\sources\c99\common\sprcdiv.c"
  3133                           	line	8
  3134                           	global	__size_of___fldiv
  3135                           	__size_of___fldiv	equ	__end_of___fldiv-___fldiv
  3136  01DF                     	
  3137                           ___fldiv:	
  3138  061E                     ;incstack = 0
  3139                           	opt	stack 14
  3140                           ; Regs used in ___fldiv: [wreg+status,2+status,0]
  3141                           	line	26
  3142                           	
  3143                           l980:	
  3144  061E                     	movf	0+(___fldiv@b)+03h,w
  3145  061E  0877               	andlw	080h
  3146  061F  3980               	movwf	(??___fldiv+0)+0
  3147  0620  00F8               	movf	(??___fldiv+0)+0,w
  3148  0621  0878               	movlb 0	; select bank0
  3149  0622  0020               	movwf	(___fldiv@sign)
  3150  0623  00A4               	line	27
  3151                           	
  3152                           l982:	
  3153  0624                     	lslf	0+(___fldiv@b)+03h,w
  3154  0624  3577               	movwf	(??___fldiv+0)+0
  3155  0625  00F8               	movf	(??___fldiv+0)+0,w
  3156  0626  0878               	movwf	(___fldiv@bexp)
  3157  0627  00AB               	line	28
  3158                           	
  3159                           l984:	
  3160  0628                     	btfss	0+(___fldiv@b)+02h,(7)&7
  3161  0628  1FF6               	goto	u541
  3162  0629  2E2B               	goto	u540
  3163  062A  2E2C               u541:
  3164  062B                     	goto	l988
  3165  062B  2E2E               u540:
  3166  062C                     	line	29
  3167                           	
  3168                           l986:	
  3169  062C                     	bsf	(___fldiv@bexp)+(0/8),(0)&7
  3170  062C  142B               	goto	l988
  3171  062D  2E2E               	line	30
  3172                           	
  3173                           l547:	
  3174  062E                     	line	33
  3175                           	
  3176                           l988:	
  3177  062E                     	movf	((___fldiv@bexp)),w
  3178  062E  082B               	btfsc	status,2
  3179  062F  1903               	goto	u551
  3180  0630  2E32               	goto	u550
  3181  0631  2E33               u551:
  3182  0632                     	goto	l998
  3183  0632  2E44               u550:
  3184  0633                     	line	35
  3185                           	
  3186                           l990:	
  3187  0633                     		incf	((___fldiv@bexp)),w
  3188  0633  0A2B               	btfss	status,2
  3189  0634  1D03               	goto	u561
  3190  0635  2E37               	goto	u560
  3191  0636  2E38               u561:
  3192  0637                     	goto	l994
  3193  0637  2E41               u560:
  3194  0638                     	line	37
  3195                           	
  3196                           l992:	
  3197  0638                     	movlw	0x0
  3198  0638  3000               	movwf	(___fldiv@b+3)
  3199  0639  00F7               	movlw	0x0
  3200  063A  3000               	movwf	(___fldiv@b+2)
  3201  063B  00F6               	movlw	0x0
  3202  063C  3000               	movwf	(___fldiv@b+1)
  3203  063D  00F5               	movlw	0x0
  3204  063E  3000               	movwf	(___fldiv@b)
  3205  063F  00F4               
  3206                           	goto	l994
  3207  0640  2E41               	line	38
  3208                           	
  3209                           l549:	
  3210  0641                     	line	40
  3211                           	
  3212                           l994:	
  3213  0641                     	bsf	(___fldiv@b)+(23/8),(23)&7
  3214  0641  17F6               	line	42
  3215                           	
  3216                           l996:	
  3217  0642                     	clrf	0+(___fldiv@b)+03h
  3218  0642  01F7               	line	43
  3219                           	goto	l1000
  3220  0643  2E4D               	line	44
  3221                           	
  3222                           l548:	
  3223  0644                     	line	46
  3224                           	
  3225                           l998:	
  3226  0644                     	movlw	0x0
  3227  0644  3000               	movwf	(___fldiv@b+3)
  3228  0645  00F7               	movlw	0x0
  3229  0646  3000               	movwf	(___fldiv@b+2)
  3230  0647  00F6               	movlw	0x0
  3231  0648  3000               	movwf	(___fldiv@b+1)
  3232  0649  00F5               	movlw	0x0
  3233  064A  3000               	movwf	(___fldiv@b)
  3234  064B  00F4               
  3235                           	goto	l1000
  3236  064C  2E4D               	line	47
  3237                           	
  3238                           l550:	
  3239  064D                     	line	49
  3240                           	
  3241                           l1000:	
  3242  064D                     	movf	0+(___fldiv@a)+03h,w
  3243  064D  0873               	andlw	080h
  3244  064E  3980               	movwf	(??___fldiv+0)+0
  3245  064F  00F8               	movf	(??___fldiv+0)+0,w
  3246  0650  0878               	xorwf	(___fldiv@sign),f
  3247  0651  06A4               	line	50
  3248                           	
  3249                           l1002:	
  3250  0652                     	lslf	0+(___fldiv@a)+03h,w
  3251  0652  3573               	movwf	(??___fldiv+0)+0
  3252  0653  00F8               	movf	(??___fldiv+0)+0,w
  3253  0654  0878               	movwf	(___fldiv@aexp)
  3254  0655  00AC               	line	51
  3255                           	
  3256                           l1004:	
  3257  0656                     	btfss	0+(___fldiv@a)+02h,(7)&7
  3258  0656  1FF2               	goto	u571
  3259  0657  2E59               	goto	u570
  3260  0658  2E5A               u571:
  3261  0659                     	goto	l1008
  3262  0659  2E5C               u570:
  3263  065A                     	line	52
  3264                           	
  3265                           l1006:	
  3266  065A                     	bsf	(___fldiv@aexp)+(0/8),(0)&7
  3267  065A  142C               	goto	l1008
  3268  065B  2E5C               	line	53
  3269                           	
  3270                           l551:	
  3271  065C                     	line	56
  3272                           	
  3273                           l1008:	
  3274  065C                     	movf	((___fldiv@aexp)),w
  3275  065C  082C               	btfsc	status,2
  3276  065D  1903               	goto	u581
  3277  065E  2E60               	goto	u580
  3278  065F  2E61               u581:
  3279  0660                     	goto	l1018
  3280  0660  2E72               u580:
  3281  0661                     	line	58
  3282                           	
  3283                           l1010:	
  3284  0661                     		incf	((___fldiv@aexp)),w
  3285  0661  0A2C               	btfss	status,2
  3286  0662  1D03               	goto	u591
  3287  0663  2E65               	goto	u590
  3288  0664  2E66               u591:
  3289  0665                     	goto	l1014
  3290  0665  2E6F               u590:
  3291  0666                     	line	60
  3292                           	
  3293                           l1012:	
  3294  0666                     	movlw	0x0
  3295  0666  3000               	movwf	(___fldiv@a+3)
  3296  0667  00F3               	movlw	0x0
  3297  0668  3000               	movwf	(___fldiv@a+2)
  3298  0669  00F2               	movlw	0x0
  3299  066A  3000               	movwf	(___fldiv@a+1)
  3300  066B  00F1               	movlw	0x0
  3301  066C  3000               	movwf	(___fldiv@a)
  3302  066D  00F0               
  3303                           	goto	l1014
  3304  066E  2E6F               	line	61
  3305                           	
  3306                           l553:	
  3307  066F                     	line	63
  3308                           	
  3309                           l1014:	
  3310  066F                     	bsf	(___fldiv@a)+(23/8),(23)&7
  3311  066F  17F2               	line	65
  3312                           	
  3313                           l1016:	
  3314  0670                     	clrf	0+(___fldiv@a)+03h
  3315  0670  01F3               	line	66
  3316                           	goto	l554
  3317  0671  2E7A               	line	67
  3318                           	
  3319                           l552:	
  3320  0672                     	line	69
  3321                           	
  3322                           l1018:	
  3323  0672                     	movlw	0x0
  3324  0672  3000               	movwf	(___fldiv@a+3)
  3325  0673  00F3               	movlw	0x0
  3326  0674  3000               	movwf	(___fldiv@a+2)
  3327  0675  00F2               	movlw	0x0
  3328  0676  3000               	movwf	(___fldiv@a+1)
  3329  0677  00F1               	movlw	0x0
  3330  0678  3000               	movwf	(___fldiv@a)
  3331  0679  00F0               
  3332                           	line	70
  3333                           	
  3334                           l554:	
  3335  067A                     	line	75
  3336                           	movf	(___fldiv@a+3),w
  3337  067A  0873               	iorwf	(___fldiv@a+2),w
  3338  067B  0472               	iorwf	(___fldiv@a+1),w
  3339  067C  0471               	iorwf	(___fldiv@a),w
  3340  067D  0470               	skipz
  3341  067E  1D03               	goto	u601
  3342  067F  2E81               	goto	u600
  3343  0680  2E82               u601:
  3344  0681                     	goto	l1028
  3345  0681  2E9C               u600:
  3346  0682                     	line	76
  3347                           	
  3348                           l1020:	
  3349  0682                     	movlw	high highword(0)
  3350  0682  3000               	movwf	(___fldiv@b+3)
  3351  0683  00F7               	movlw	low highword(0)
  3352  0684  3000               	movwf	(___fldiv@b+2)
  3353  0685  00F6               	movlw	high(0)
  3354  0686  3000               	movwf	(___fldiv@b+1)
  3355  0687  00F5               	movlw	low(0)
  3356  0688  3000               	movwf	(___fldiv@b)
  3357  0689  00F4               
  3358                           	line	77
  3359                           	movlw	080h
  3360  068A  3080               	iorwf	0+(___fldiv@b)+02h,f
  3361  068B  04F6               	movlw	07Fh
  3362  068C  307F               	iorwf	1+(___fldiv@b)+02h,f
  3363  068D  04F7               	line	78
  3364                           	
  3365                           l1022:	
  3366  068E                     	movf	(___fldiv@sign),w
  3367  068E  0824               	movwf	(??___fldiv+0)+0
  3368  068F  00F8               	movf	(??___fldiv+0)+0,w
  3369  0690  0878               	iorwf	0+(___fldiv@b)+03h,f
  3370  0691  04F7               	line	79
  3371                           	
  3372                           l1024:	
  3373  0692                     	movf	(___fldiv@b+3),w
  3374  0692  0877               	movwf	(?___fldiv+3)
  3375  0693  00F3               	movf	(___fldiv@b+2),w
  3376  0694  0876               	movwf	(?___fldiv+2)
  3377  0695  00F2               	movf	(___fldiv@b+1),w
  3378  0696  0875               	movwf	(?___fldiv+1)
  3379  0697  00F1               	movf	(___fldiv@b),w
  3380  0698  0874               	movwf	(?___fldiv)
  3381  0699  00F0               
  3382                           	goto	l556
  3383  069A  2FFC               	
  3384                           l1026:	
  3385  069B                     	goto	l556
  3386  069B  2FFC               	line	80
  3387                           	
  3388                           l555:	
  3389  069C                     	line	83
  3390                           	
  3391                           l1028:	
  3392  069C                     	movf	((___fldiv@bexp)),w
  3393  069C  082B               	btfss	status,2
  3394  069D  1D03               	goto	u611
  3395  069E  2EA0               	goto	u610
  3396  069F  2EA1               u611:
  3397  06A0                     	goto	l1034
  3398  06A0  2EB3               u610:
  3399  06A1                     	line	84
  3400                           	
  3401                           l1030:	
  3402  06A1                     	movlw	high highword(0)
  3403  06A1  3000               	movwf	(___fldiv@b+3)
  3404  06A2  00F7               	movlw	low highword(0)
  3405  06A3  3000               	movwf	(___fldiv@b+2)
  3406  06A4  00F6               	movlw	high(0)
  3407  06A5  3000               	movwf	(___fldiv@b+1)
  3408  06A6  00F5               	movlw	low(0)
  3409  06A7  3000               	movwf	(___fldiv@b)
  3410  06A8  00F4               
  3411                           	line	85
  3412                           	movf	(___fldiv@b+3),w
  3413  06A9  0877               	movwf	(?___fldiv+3)
  3414  06AA  00F3               	movf	(___fldiv@b+2),w
  3415  06AB  0876               	movwf	(?___fldiv+2)
  3416  06AC  00F2               	movf	(___fldiv@b+1),w
  3417  06AD  0875               	movwf	(?___fldiv+1)
  3418  06AE  00F1               	movf	(___fldiv@b),w
  3419  06AF  0874               	movwf	(?___fldiv)
  3420  06B0  00F0               
  3421                           	goto	l556
  3422  06B1  2FFC               	
  3423                           l1032:	
  3424  06B2                     	goto	l556
  3425  06B2  2FFC               	line	86
  3426                           	
  3427                           l557:	
  3428  06B3                     	line	89
  3429                           	
  3430                           l1034:	
  3431  06B3                     	movf	(___fldiv@aexp),w
  3432  06B3  082C               	movwf	(??___fldiv+0)+0
  3433  06B4  00F8               	clrf	(??___fldiv+0)+0+1
  3434  06B5  01F9               	comf	(??___fldiv+0)+0,f
  3435  06B6  09F8               	comf	(??___fldiv+0)+1,f
  3436  06B7  09F9               	incf	(??___fldiv+0)+0,f
  3437  06B8  0AF8               	skipnz
  3438  06B9  1903               	incf	(??___fldiv+0)+1,f
  3439  06BA  0AF9               	movf	(___fldiv@bexp),w
  3440  06BB  082B               	addwf	0+(??___fldiv+0)+0,w
  3441  06BC  0778               	movwf	(??___fldiv+2)+0
  3442  06BD  00FA               	movf	1+(??___fldiv+0)+0,w
  3443  06BE  0879               	skipnc
  3444  06BF  1803               	incf	1+(??___fldiv+0)+0,w
  3445  06C0  0A79               	movwf	((??___fldiv+2)+0)+1
  3446  06C1  00FB               	movf	0+(??___fldiv+2)+0,w
  3447  06C2  087A               	addlw	07Fh
  3448  06C3  3E7F               	movwf	(___fldiv@new_exp)
  3449  06C4  00A5               	movlw	0
  3450  06C5  3000               	addwfc	1+(??___fldiv+2)+0,w
  3451  06C6  3D7B               	movwf	1+(___fldiv@new_exp)
  3452  06C7  00A6               	line	92
  3453                           	
  3454                           l1036:	
  3455  06C8                     	movf	(___fldiv@b+3),w
  3456  06C8  0877               	movwf	(___fldiv@rem+3)
  3457  06C9  00A3               	movf	(___fldiv@b+2),w
  3458  06CA  0876               	movwf	(___fldiv@rem+2)
  3459  06CB  00A2               	movf	(___fldiv@b+1),w
  3460  06CC  0875               	movwf	(___fldiv@rem+1)
  3461  06CD  00A1               	movf	(___fldiv@b),w
  3462  06CE  0874               	movwf	(___fldiv@rem)
  3463  06CF  00A0               
  3464                           	line	93
  3465                           	
  3466                           l1038:	
  3467  06D0                     	movlw	high highword(0)
  3468  06D0  3000               	movwf	(___fldiv@b+3)
  3469  06D1  00F7               	movlw	low highword(0)
  3470  06D2  3000               	movwf	(___fldiv@b+2)
  3471  06D3  00F6               	movlw	high(0)
  3472  06D4  3000               	movwf	(___fldiv@b+1)
  3473  06D5  00F5               	movlw	low(0)
  3474  06D6  3000               	movwf	(___fldiv@b)
  3475  06D7  00F4               
  3476                           	line	94
  3477                           	
  3478                           l1040:	
  3479  06D8                     	movlw	high highword(0)
  3480  06D8  3000               	movwf	(___fldiv@grs+3)
  3481  06D9  00AA               	movlw	low highword(0)
  3482  06DA  3000               	movwf	(___fldiv@grs+2)
  3483  06DB  00A9               	movlw	high(0)
  3484  06DC  3000               	movwf	(___fldiv@grs+1)
  3485  06DD  00A8               	movlw	low(0)
  3486  06DE  3000               	movwf	(___fldiv@grs)
  3487  06DF  00A7               
  3488                           	line	96
  3489                           	
  3490                           l1042:	
  3491  06E0                     	clrf	(___fldiv@aexp)
  3492  06E0  01AC               	line	97
  3493                           	goto	l1062
  3494  06E1  2F24               	
  3495                           l559:	
  3496  06E2                     	line	100
  3497                           	
  3498                           l1044:	
  3499  06E2                     	movf	((___fldiv@aexp)),w
  3500  06E2  082C               	btfsc	status,2
  3501  06E3  1903               	goto	u621
  3502  06E4  2EE6               	goto	u620
  3503  06E5  2EE7               u621:
  3504  06E6                     	goto	l1054
  3505  06E6  2F03               u620:
  3506  06E7                     	line	101
  3507                           	
  3508                           l1046:	
  3509  06E7                     	movlw	01h
  3510  06E7  3001               u635:
  3511  06E8                     	lslf	(___fldiv@rem),f
  3512  06E8  35A0               	rlf	(___fldiv@rem+1),f
  3513  06E9  0DA1               	rlf	(___fldiv@rem+2),f
  3514  06EA  0DA2               	rlf	(___fldiv@rem+3),f
  3515  06EB  0DA3               	decfsz	wreg,f
  3516  06EC  0B89               	goto	u635
  3517  06ED  2EE8               	line	102
  3518                           	movlw	01h
  3519  06EE  3001               u645:
  3520  06EF                     	lslf	(___fldiv@b),f
  3521  06EF  35F4               	rlf	(___fldiv@b+1),f
  3522  06F0  0DF5               	rlf	(___fldiv@b+2),f
  3523  06F1  0DF6               	rlf	(___fldiv@b+3),f
  3524  06F2  0DF7               	decfsz	wreg,f
  3525  06F3  0B89               	goto	u645
  3526  06F4  2EEF               	line	103
  3527                           	
  3528                           l1048:	
  3529  06F5                     	btfss	(___fldiv@grs+3),(31)&7
  3530  06F5  1FAA               	goto	u651
  3531  06F6  2EF8               	goto	u650
  3532  06F7  2EF9               u651:
  3533  06F8                     	goto	l1052
  3534  06F8  2EFB               u650:
  3535  06F9                     	line	104
  3536                           	
  3537                           l1050:	
  3538  06F9                     	bsf	(___fldiv@b)+(0/8),(0)&7
  3539  06F9  1474               	goto	l1052
  3540  06FA  2EFB               	line	105
  3541                           	
  3542                           l561:	
  3543  06FB                     	line	106
  3544                           	
  3545                           l1052:	
  3546  06FB                     	movlw	01h
  3547  06FB  3001               u665:
  3548  06FC                     	lslf	(___fldiv@grs),f
  3549  06FC  35A7               	rlf	(___fldiv@grs+1),f
  3550  06FD  0DA8               	rlf	(___fldiv@grs+2),f
  3551  06FE  0DA9               	rlf	(___fldiv@grs+3),f
  3552  06FF  0DAA               	decfsz	wreg,f
  3553  0700  0B89               	goto	u665
  3554  0701  2EFC               	goto	l1054
  3555  0702  2F03               	line	107
  3556                           	
  3557                           l560:	
  3558  0703                     	line	112
  3559                           	
  3560                           l1054:	
  3561  0703                     	movf	(___fldiv@a+3),w
  3562  0703  0873               	subwf	(___fldiv@rem+3),w
  3563  0704  0223               	skipz
  3564  0705  1D03               	goto	u675
  3565  0706  2F11               	movf	(___fldiv@a+2),w
  3566  0707  0872               	subwf	(___fldiv@rem+2),w
  3567  0708  0222               	skipz
  3568  0709  1D03               	goto	u675
  3569  070A  2F11               	movf	(___fldiv@a+1),w
  3570  070B  0871               	subwf	(___fldiv@rem+1),w
  3571  070C  0221               	skipz
  3572  070D  1D03               	goto	u675
  3573  070E  2F11               	movf	(___fldiv@a),w
  3574  070F  0870               	subwf	(___fldiv@rem),w
  3575  0710  0220               u675:
  3576  0711                     	skipc
  3577  0711  1C03               	goto	u671
  3578  0712  2F14               	goto	u670
  3579  0713  2F15               u671:
  3580  0714                     	goto	l1060
  3581  0714  2F1F               u670:
  3582  0715                     	line	115
  3583                           	
  3584                           l1056:	
  3585  0715                     	bsf	(___fldiv@grs)+(30/8),(30)&7
  3586  0715  172A               	line	116
  3587                           	
  3588                           l1058:	
  3589  0716                     	movf	(___fldiv@a),w
  3590  0716  0870               	subwf	(___fldiv@rem),f
  3591  0717  02A0               	movf	(___fldiv@a+1),w
  3592  0718  0871               	subwfb	(___fldiv@rem+1),f
  3593  0719  3BA1               	movf	(___fldiv@a+2),w
  3594  071A  0872               	subwfb	(___fldiv@rem+2),f
  3595  071B  3BA2               	movf	(___fldiv@a+3),w
  3596  071C  0873               	subwfb	(___fldiv@rem+3),f
  3597  071D  3BA3               	goto	l1060
  3598  071E  2F1F               	line	117
  3599                           	
  3600                           l562:	
  3601  071F                     	line	118
  3602                           	
  3603                           l1060:	
  3604  071F                     	movlw	low(01h)
  3605  071F  3001               	movwf	(??___fldiv+0)+0
  3606  0720  00F8               	movf	(??___fldiv+0)+0,w
  3607  0721  0878               	addwf	(___fldiv@aexp),f
  3608  0722  07AC               	goto	l1062
  3609  0723  2F24               	line	119
  3610                           	
  3611                           l558:	
  3612  0724                     	line	97
  3613                           	
  3614                           l1062:	
  3615  0724                     	movlw	low(01Ah)
  3616  0724  301A               	subwf	(___fldiv@aexp),w
  3617  0725  022C               	skipc
  3618  0726  1C03               	goto	u681
  3619  0727  2F29               	goto	u680
  3620  0728  2F2A               u681:
  3621  0729                     	goto	l1044
  3622  0729  2EE2               u680:
  3623  072A                     	goto	l1064
  3624  072A  2F2B               	
  3625                           l563:	
  3626  072B                     	line	122
  3627                           	
  3628                           l1064:	
  3629  072B                     	movf	(___fldiv@rem+3),w
  3630  072B  0823               	iorwf	(___fldiv@rem+2),w
  3631  072C  0422               	iorwf	(___fldiv@rem+1),w
  3632  072D  0421               	iorwf	(___fldiv@rem),w
  3633  072E  0420               	skipnz
  3634  072F  1903               	goto	u691
  3635  0730  2F32               	goto	u690
  3636  0731  2F33               u691:
  3637  0732                     	goto	l1078
  3638  0732  2F4F               u690:
  3639  0733                     	line	123
  3640                           	
  3641                           l1066:	
  3642  0733                     	bsf	(___fldiv@grs)+(0/8),(0)&7
  3643  0733  1427               	goto	l1078
  3644  0734  2F4F               	line	124
  3645                           	
  3646                           l564:	
  3647  0735                     	line	127
  3648                           	goto	l1078
  3649  0735  2F4F               	
  3650                           l566:	
  3651  0736                     	line	128
  3652                           	
  3653                           l1068:	
  3654  0736                     	movlw	01h
  3655  0736  3001               u705:
  3656  0737                     	lslf	(___fldiv@b),f
  3657  0737  35F4               	rlf	(___fldiv@b+1),f
  3658  0738  0DF5               	rlf	(___fldiv@b+2),f
  3659  0739  0DF6               	rlf	(___fldiv@b+3),f
  3660  073A  0DF7               	decfsz	wreg,f
  3661  073B  0B89               	goto	u705
  3662  073C  2F37               	line	129
  3663                           	
  3664                           l1070:	
  3665  073D                     	btfss	(___fldiv@grs+3),(31)&7
  3666  073D  1FAA               	goto	u711
  3667  073E  2F40               	goto	u710
  3668  073F  2F41               u711:
  3669  0740                     	goto	l1074
  3670  0740  2F43               u710:
  3671  0741                     	line	130
  3672                           	
  3673                           l1072:	
  3674  0741                     	bsf	(___fldiv@b)+(0/8),(0)&7
  3675  0741  1474               	goto	l1074
  3676  0742  2F43               	line	131
  3677                           	
  3678                           l567:	
  3679  0743                     	line	132
  3680                           	
  3681                           l1074:	
  3682  0743                     	movlw	01h
  3683  0743  3001               u725:
  3684  0744                     	lslf	(___fldiv@grs),f
  3685  0744  35A7               	rlf	(___fldiv@grs+1),f
  3686  0745  0DA8               	rlf	(___fldiv@grs+2),f
  3687  0746  0DA9               	rlf	(___fldiv@grs+3),f
  3688  0747  0DAA               	decfsz	wreg,f
  3689  0748  0B89               	goto	u725
  3690  0749  2F44               	line	133
  3691                           	
  3692                           l1076:	
  3693  074A                     	movlw	0FFh
  3694  074A  30FF               	addwf	(___fldiv@new_exp),f
  3695  074B  07A5               	movlw	0FFh
  3696  074C  30FF               	addwfc	(___fldiv@new_exp+1),f
  3697  074D  3DA6               	goto	l1078
  3698  074E  2F4F               	line	134
  3699                           	
  3700                           l565:	
  3701  074F                     	line	127
  3702                           	
  3703                           l1078:	
  3704  074F                     	btfss	(___fldiv@b+2),(23)&7
  3705  074F  1FF6               	goto	u731
  3706  0750  2F52               	goto	u730
  3707  0751  2F53               u731:
  3708  0752                     	goto	l1068
  3709  0752  2F36               u730:
  3710  0753                     	goto	l1080
  3711  0753  2F54               	
  3712                           l568:	
  3713  0754                     	line	139
  3714                           	
  3715                           l1080:	
  3716  0754                     	clrf	(___fldiv@aexp)
  3717  0754  01AC               	line	140
  3718                           	
  3719                           l1082:	
  3720  0755                     	btfss	(___fldiv@grs+3),(31)&7
  3721  0755  1FAA               	goto	u741
  3722  0756  2F58               	goto	u740
  3723  0757  2F59               u741:
  3724  0758                     	goto	l1090
  3725  0758  2F79               u740:
  3726  0759                     	line	141
  3727                           	
  3728                           l1084:	
  3729  0759                     	movlw	0FFh
  3730  0759  30FF               	andwf	(___fldiv@grs),w
  3731  075A  0527               	movwf	(??___fldiv+0)+0
  3732  075B  00F8               	movlw	0FFh
  3733  075C  30FF               	andwf	(___fldiv@grs+1),w
  3734  075D  0528               	movwf	((??___fldiv+0)+0+1)
  3735  075E  00F9               	movlw	0FFh
  3736  075F  30FF               	andwf	(___fldiv@grs+2),w
  3737  0760  0529               	movwf	((??___fldiv+0)+0+2)
  3738  0761  00FA               	movlw	07Fh
  3739  0762  307F               	andwf	(___fldiv@grs+3),w
  3740  0763  052A               	movwf	((??___fldiv+0)+0+3)
  3741  0764  00FB               	movf	3+(??___fldiv+0)+0,w
  3742  0765  087B               	iorwf	2+(??___fldiv+0)+0,w
  3743  0766  047A               	iorwf	1+(??___fldiv+0)+0,w
  3744  0767  0479               	iorwf	0+(??___fldiv+0)+0,w
  3745  0768  0478               	skipnz
  3746  0769  1903               	goto	u751
  3747  076A  2F6C               	goto	u750
  3748  076B  2F6D               u751:
  3749  076C                     	goto	l570
  3750  076C  2F70               u750:
  3751  076D                     	line	142
  3752                           	
  3753                           l1086:	
  3754  076D                     	clrf	(___fldiv@aexp)
  3755  076D  01AC               	incf	(___fldiv@aexp),f
  3756  076E  0AAC               	line	143
  3757                           	goto	l1090
  3758  076F  2F79               	line	144
  3759                           	
  3760                           l570:	
  3761  0770                     	line	145
  3762                           	btfss	(___fldiv@b),(0)&7
  3763  0770  1C74               	goto	u761
  3764  0771  2F73               	goto	u760
  3765  0772  2F74               u761:
  3766  0773                     	goto	l1090
  3767  0773  2F79               u760:
  3768  0774                     	line	146
  3769                           	
  3770                           l1088:	
  3771  0774                     	clrf	(___fldiv@aexp)
  3772  0774  01AC               	incf	(___fldiv@aexp),f
  3773  0775  0AAC               	goto	l1090
  3774  0776  2F79               	line	147
  3775                           	
  3776                           l572:	
  3777  0777                     	goto	l1090
  3778  0777  2F79               	line	148
  3779                           	
  3780                           l571:	
  3781  0778                     	goto	l1090
  3782  0778  2F79               	line	149
  3783                           	
  3784                           l569:	
  3785  0779                     	line	150
  3786                           	
  3787                           l1090:	
  3788  0779                     	movf	((___fldiv@aexp)),w
  3789  0779  082C               	btfsc	status,2
  3790  077A  1903               	goto	u771
  3791  077B  2F7D               	goto	u770
  3792  077C  2F7E               u771:
  3793  077D                     	goto	l1100
  3794  077D  2FA8               u770:
  3795  077E                     	line	151
  3796                           	
  3797                           l1092:	
  3798  077E                     	movlw	01h
  3799  077E  3001               	addwf	(___fldiv@b),f
  3800  077F  07F4               	movlw	0
  3801  0780  3000               	addwfc	(___fldiv@b+1),f
  3802  0781  3DF5               	movlw	0
  3803  0782  3000               	addwfc	(___fldiv@b+2),f
  3804  0783  3DF6               	movlw	0
  3805  0784  3000               	addwfc	(___fldiv@b+3),f
  3806  0785  3DF7               	line	152
  3807                           	
  3808                           l1094:	
  3809  0786                     	btfss	(___fldiv@b+3),(24)&7
  3810  0786  1C77               	goto	u781
  3811  0787  2F89               	goto	u780
  3812  0788  2F8A               u781:
  3813  0789                     	goto	l1100
  3814  0789  2FA8               u780:
  3815  078A                     	line	153
  3816                           	
  3817                           l1096:	
  3818  078A                     	movf	(___fldiv@b),w
  3819  078A  0874               	movwf	(??___fldiv+0)+0
  3820  078B  00F8               	movf	(___fldiv@b+1),w
  3821  078C  0875               	movwf	((??___fldiv+0)+0+1)
  3822  078D  00F9               	movf	(___fldiv@b+2),w
  3823  078E  0876               	movwf	((??___fldiv+0)+0+2)
  3824  078F  00FA               	movf	(___fldiv@b+3),w
  3825  0790  0877               	movwf	((??___fldiv+0)+0+3)
  3826  0791  00FB               	movlw	01h
  3827  0792  3001               	movwf	(??___fldiv+4)+0
  3828  0793  00FC               u795:
  3829  0794                     	asrf	(??___fldiv+0)+3,f
  3830  0794  37FB               	rrf	(??___fldiv+0)+2,f
  3831  0795  0CFA               	rrf	(??___fldiv+0)+1,f
  3832  0796  0CF9               	rrf	(??___fldiv+0)+0,f
  3833  0797  0CF8               u790:
  3834  0798                     	decfsz	(??___fldiv+4)+0,f
  3835  0798  0BFC               	goto	u795
  3836  0799  2F94               	movf	3+(??___fldiv+0)+0,w
  3837  079A  087B               	movwf	(___fldiv@b+3)
  3838  079B  00F7               	movf	2+(??___fldiv+0)+0,w
  3839  079C  087A               	movwf	(___fldiv@b+2)
  3840  079D  00F6               	movf	1+(??___fldiv+0)+0,w
  3841  079E  0879               	movwf	(___fldiv@b+1)
  3842  079F  00F5               	movf	0+(??___fldiv+0)+0,w
  3843  07A0  0878               	movwf	(___fldiv@b)
  3844  07A1  00F4               
  3845                           	line	154
  3846                           	
  3847                           l1098:	
  3848  07A2                     	movlw	01h
  3849  07A2  3001               	addwf	(___fldiv@new_exp),f
  3850  07A3  07A5               	movlw	0
  3851  07A4  3000               	addwfc	(___fldiv@new_exp+1),f
  3852  07A5  3DA6               	goto	l1100
  3853  07A6  2FA8               	line	155
  3854                           	
  3855                           l574:	
  3856  07A7                     	goto	l1100
  3857  07A7  2FA8               	line	156
  3858                           	
  3859                           l573:	
  3860  07A8                     	line	159
  3861                           	
  3862                           l1100:	
  3863  07A8                     	movf	(___fldiv@new_exp+1),w
  3864  07A8  0826               	xorlw	80h
  3865  07A9  3A80               	movwf	(??___fldiv+0)+0
  3866  07AA  00F8               	movlw	(0)^80h
  3867  07AB  3080               	subwf	(??___fldiv+0)+0,w
  3868  07AC  0278               	skipz
  3869  07AD  1D03               	goto	u805
  3870  07AE  2FB1               	movlw	0FFh
  3871  07AF  30FF               	subwf	(___fldiv@new_exp),w
  3872  07B0  0225               u805:
  3873  07B1                     
  3874                           	skipc
  3875  07B1  1C03               	goto	u801
  3876  07B2  2FB4               	goto	u800
  3877  07B3  2FB5               u801:
  3878  07B4                     	goto	l575
  3879  07B4  2FC2               u800:
  3880  07B5                     	line	160
  3881                           	
  3882                           l1102:	
  3883  07B5                     	movlw	0FFh
  3884  07B5  30FF               	movlb 0	; select bank0
  3885  07B6  0020               	movwf	(___fldiv@new_exp)
  3886  07B7  00A5               	movlw	0
  3887  07B8  3000               	movwf	((___fldiv@new_exp))+1
  3888  07B9  00A6               	line	161
  3889                           	movlw	high highword(0)
  3890  07BA  3000               	movwf	(___fldiv@b+3)
  3891  07BB  00F7               	movlw	low highword(0)
  3892  07BC  3000               	movwf	(___fldiv@b+2)
  3893  07BD  00F6               	movlw	high(0)
  3894  07BE  3000               	movwf	(___fldiv@b+1)
  3895  07BF  00F5               	movlw	low(0)
  3896  07C0  3000               	movwf	(___fldiv@b)
  3897  07C1  00F4               
  3898                           	line	162
  3899                           	
  3900                           l575:	
  3901  07C2                     	line	165
  3902                           	movlb 0	; select bank0
  3903  07C2  0020               	movf	(___fldiv@new_exp+1),w
  3904  07C3  0826               	xorlw	80h
  3905  07C4  3A80               	movwf	(??___fldiv+0)+0
  3906  07C5  00F8               	movlw	(0)^80h
  3907  07C6  3080               	subwf	(??___fldiv+0)+0,w
  3908  07C7  0278               	skipz
  3909  07C8  1D03               	goto	u815
  3910  07C9  2FCC               	movlw	01h
  3911  07CA  3001               	subwf	(___fldiv@new_exp),w
  3912  07CB  0225               u815:
  3913  07CC                     
  3914                           	skipnc
  3915  07CC  1803               	goto	u811
  3916  07CD  2FCF               	goto	u810
  3917  07CE  2FD0               u811:
  3918  07CF                     	goto	l576
  3919  07CF  2FDC               u810:
  3920  07D0                     	line	166
  3921                           	
  3922                           l1104:	
  3923  07D0                     	movlb 0	; select bank0
  3924  07D0  0020               	clrf	(___fldiv@new_exp)
  3925  07D1  01A5               	clrf	(___fldiv@new_exp+1)
  3926  07D2  01A6               	line	167
  3927                           	
  3928                           l1106:	
  3929  07D3                     	movlw	high highword(0)
  3930  07D3  3000               	movwf	(___fldiv@b+3)
  3931  07D4  00F7               	movlw	low highword(0)
  3932  07D5  3000               	movwf	(___fldiv@b+2)
  3933  07D6  00F6               	movlw	high(0)
  3934  07D7  3000               	movwf	(___fldiv@b+1)
  3935  07D8  00F5               	movlw	low(0)
  3936  07D9  3000               	movwf	(___fldiv@b)
  3937  07DA  00F4               
  3938                           	line	169
  3939                           	
  3940                           l1108:	
  3941  07DB                     	clrf	(___fldiv@sign)
  3942  07DB  01A4               	line	170
  3943                           	
  3944                           l576:	
  3945  07DC                     	line	173
  3946                           	movlb 0	; select bank0
  3947  07DC  0020               	movf	(___fldiv@new_exp),w
  3948  07DD  0825               	movwf	(??___fldiv+0)+0
  3949  07DE  00F8               	movf	(??___fldiv+0)+0,w
  3950  07DF  0878               	movwf	(___fldiv@bexp)
  3951  07E0  00AB               	line	175
  3952                           	
  3953                           l1110:	
  3954  07E1                     	btfss	(___fldiv@bexp),(0)&7
  3955  07E1  1C2B               	goto	u821
  3956  07E2  2FE4               	goto	u820
  3957  07E3  2FE5               u821:
  3958  07E4                     	goto	l1114
  3959  07E4  2FE7               u820:
  3960  07E5                     	line	176
  3961                           	
  3962                           l1112:	
  3963  07E5                     	bsf	0+(___fldiv@b)+02h+(7/8),(7)&7
  3964  07E5  17F6               	line	177
  3965                           	goto	l578
  3966  07E6  2FEB               	line	179
  3967                           	
  3968                           l577:	
  3969  07E7                     	line	180
  3970                           	
  3971                           l1114:	
  3972  07E7                     	movlw	low(07Fh)
  3973  07E7  307F               	movwf	(??___fldiv+0)+0
  3974  07E8  00F8               	movf	(??___fldiv+0)+0,w
  3975  07E9  0878               	andwf	0+(___fldiv@b)+02h,f
  3976  07EA  05F6               	line	181
  3977                           	
  3978                           l578:	
  3979  07EB                     	line	182
  3980                           	lsrf	(___fldiv@bexp),w
  3981  07EB  362B               	movwf	(??___fldiv+0)+0
  3982  07EC  00F8               	movf	(??___fldiv+0)+0,w
  3983  07ED  0878               	movwf	0+(___fldiv@b)+03h
  3984  07EE  00F7               	line	183
  3985                           	movf	(___fldiv@sign),w
  3986  07EF  0824               	movwf	(??___fldiv+0)+0
  3987  07F0  00F8               	movf	(??___fldiv+0)+0,w
  3988  07F1  0878               	iorwf	0+(___fldiv@b)+03h,f
  3989  07F2  04F7               	line	184
  3990                           	
  3991                           l1116:	
  3992  07F3                     	movf	(___fldiv@b+3),w
  3993  07F3  0877               	movwf	(?___fldiv+3)
  3994  07F4  00F3               	movf	(___fldiv@b+2),w
  3995  07F5  0876               	movwf	(?___fldiv+2)
  3996  07F6  00F2               	movf	(___fldiv@b+1),w
  3997  07F7  0875               	movwf	(?___fldiv+1)
  3998  07F8  00F1               	movf	(___fldiv@b),w
  3999  07F9  0874               	movwf	(?___fldiv)
  4000  07FA  00F0               
  4001                           	goto	l556
  4002  07FB  2FFC               	
  4003                           l1118:	
  4004  07FC                     	line	185
  4005                           	
  4006                           l556:	
  4007  07FC                     	return
  4008  07FC  0008               	opt stack 0
  4009                           GLOBAL	__end_of___fldiv
  4010                           	__end_of___fldiv:
  4011  07FD                     	signat	___fldiv,8316
  4012                           global	___latbits
  4013                           ___latbits	equ	2
  4014  0002                     	global	btemp
  4015                           	btemp set 07Eh
  4016  007E                     
  4017                           	DABS	1,126,2	;btemp
  4018                           	global	wtemp0
  4019                           	wtemp0 set btemp+0
  4020  007E                     	end


Data Sizes:
    Strings     0
    Constant    0
    Data        0
    BSS         0
    Persistent  14
    Stack       0

Auto Spaces:
    Space          Size  Autos    Used
    COMMON           14     13      13
    BANK0            80     33      47
    BANK1            80      0       0
    BANK2            80      0       0
    BANK3            80      0       0
    BANK4            80      0       0
    BANK5            80      0       0
    BANK6            16      0       0

Pointer List with Targets:

    None.

Critical Paths under _main in COMMON

    _CalculateFreq->___fldiv
    ___fltol->___fldiv

Critical Paths under _main in BANK0

    _main->_CalculateFreq
    _CalculateFreq->___fltol
    ___fltol->___fldiv

Critical Paths under _main in BANK1

    None.

Critical Paths under _main in BANK2

    None.

Critical Paths under _main in BANK3

    None.

Critical Paths under _main in BANK4

    None.

Critical Paths under _main in BANK5

    None.

Critical Paths under _main in BANK6

    None.

Call Graph Tables:

 ---------------------------------------------------------------------------------
 (Depth) Function   	        Calls       Base Space   Used Autos Params    Refs
 ---------------------------------------------------------------------------------
 (0) _main                                                 0     0      0    2147
                      _CalculateFreq
                  _SYSTEM_Initialize
                          _spi_write
 ---------------------------------------------------------------------------------
 (1) _spi_write                                            4     2      2     471
                                              0 COMMON     4     2      2
 ---------------------------------------------------------------------------------
 (1) _SYSTEM_Initialize                                    0     0      0       0
              _OSCILLATOR_Initialize
             _PIN_MANAGER_Initialize
                     _WDT_Initialize
 ---------------------------------------------------------------------------------
 (2) _WDT_Initialize                                       0     0      0       0
 ---------------------------------------------------------------------------------
 (2) _PIN_MANAGER_Initialize                               0     0      0       0
 ---------------------------------------------------------------------------------
 (2) _OSCILLATOR_Initialize                                0     0      0       0
 ---------------------------------------------------------------------------------
 (1) _CalculateFreq                                        9     5      4    1676
                                             24 BANK0      9     5      4
                            ___fldiv
                            ___fltol
 ---------------------------------------------------------------------------------
 (2) ___fltol                                             11     7      4     305
                                             13 BANK0     11     7      4
                            ___fldiv (ARG)
 ---------------------------------------------------------------------------------
 (2) ___fldiv                                             26    18      8    1273
                                              0 COMMON    13     5      8
                                              0 BANK0     13    13      0
 ---------------------------------------------------------------------------------
 Estimated maximum stack depth 2
 ---------------------------------------------------------------------------------

 Call Graph Graphs:

 _main (ROOT)
   _CalculateFreq
     ___fldiv
     ___fltol
       ___fldiv (ARG)
   _SYSTEM_Initialize
     _OSCILLATOR_Initialize
     _PIN_MANAGER_Initialize
     _WDT_Initialize
   _spi_write

 Address spaces:
Name               Size   Autos  Total    Cost      Usage
BIGRAM             1F0      0       0       0        0.0%
EEDATA             100      0       0       0        0.0%
NULL                 0      0       0       0        0.0%
CODE                 0      0       0       0        0.0%
BITCOMMON            E      0       0       1        0.0%
BITSFR0              0      0       0       1        0.0%
SFR0                 0      0       0       1        0.0%
COMMON               E      D       D       2       92.9%
BITSFR1              0      0       0       2        0.0%
SFR1                 0      0       0       2        0.0%
BITSFR2              0      0       0       3        0.0%
SFR2                 0      0       0       3        0.0%
STACK                0      0       0       3        0.0%
BITSFR3              0      0       0       4        0.0%
SFR3                 0      0       0       4        0.0%
ABS                  0      0      3C       4        0.0%
BITBANK0            50      0       0       5        0.0%
BITSFR4              0      0       0       5        0.0%
SFR4                 0      0       0       5        0.0%
BANK0               50     21      2F       6       58.8%
BITSFR5              0      0       0       6        0.0%
SFR5                 0      0       0       6        0.0%
BITBANK1            50      0       0       7        0.0%
BITSFR6              0      0       0       7        0.0%
SFR6                 0      0       0       7        0.0%
BANK1               50      0       0       8        0.0%
BITSFR7              0      0       0       8        0.0%
SFR7                 0      0       0       8        0.0%
BITBANK2            50      0       0       9        0.0%
BITSFR8              0      0       0       9        0.0%
SFR8                 0      0       0       9        0.0%
BANK2               50      0       0      10        0.0%
BITSFR9              0      0       0      10        0.0%
SFR9                 0      0       0      10        0.0%
BITBANK3            50      0       0      11        0.0%
BITSFR10             0      0       0      11        0.0%
SFR10                0      0       0      11        0.0%
BANK3               50      0       0      12        0.0%
BITSFR11             0      0       0      12        0.0%
SFR11                0      0       0      12        0.0%
BITBANK4            50      0       0      13        0.0%
BITSFR12             0      0       0      13        0.0%
SFR12                0      0       0      13        0.0%
BANK4               50      0       0      14        0.0%
BITSFR13             0      0       0      14        0.0%
SFR13                0      0       0      14        0.0%
BITBANK5            50      0       0      15        0.0%
BITSFR14             0      0       0      15        0.0%
SFR14                0      0       0      15        0.0%
BANK5               50      0       0      16        0.0%
BITSFR15             0      0       0      16        0.0%
SFR15                0      0       0      16        0.0%
BITBANK6            10      0       0      17        0.0%
BITSFR16             0      0       0      17        0.0%
SFR16                0      0       0      17        0.0%
BANK6               10      0       0      18        0.0%
BITSFR17             0      0       0      18        0.0%
SFR17                0      0       0      18        0.0%
BITSFR18             0      0       0      19        0.0%
SFR18                0      0       0      19        0.0%
DATA                 0      0      3C      19        0.0%
BITSFR19             0      0       0      20        0.0%
SFR19                0      0       0      20        0.0%
BITSFR20             0      0       0      21        0.0%
SFR20                0      0       0      21        0.0%
BITSFR21             0      0       0      22        0.0%
SFR21                0      0       0      22        0.0%
BITSFR22             0      0       0      23        0.0%
SFR22                0      0       0      23        0.0%
BITSFR23             0      0       0      24        0.0%
SFR23                0      0       0      24        0.0%
BITSFR24             0      0       0      25        0.0%
SFR24                0      0       0      25        0.0%
BITSFR25             0      0       0      26        0.0%
SFR25                0      0       0      26        0.0%
BITSFR26             0      0       0      27        0.0%
SFR26                0      0       0      27        0.0%
BITSFR27             0      0       0      28        0.0%
SFR27                0      0       0      28        0.0%
BITSFR28             0      0       0      29        0.0%
SFR28                0      0       0      29        0.0%
BITSFR29             0      0       0      30        0.0%
SFR29                0      0       0      30        0.0%
BITSFR30             0      0       0      31        0.0%
SFR30                0      0       0      31        0.0%
BITSFR31             0      0       0      32        0.0%
SFR31                0      0       0      32        0.0%


Microchip Technology PIC Macro Assembler V2.00 build -1524193055 
Symbol Table                                                                                   Thu Dec 27 23:51:54 2018

                   ___fldiv@aexp 002C                     ___fldiv@bexp 002B                     ___fldiv@sign 0024  
                    __CFG_CP$OFF 0000                               l20 0494                               l23 048D  
                             l17 049E                               l62 04C0                               l96 04CD  
                             l97 04EA                               l98 04D4                               l99 04D6  
                    __CFG_LVP$ON 0000                              l100 04F0                              l110 0587  
                            l103 053C                              l111 0587                              l108 0586  
                            l109 0586                              l400 060C                              l401 061D  
                            l550 064D                              l390 05A7                              l551 065C  
                            l391 061D                              l560 0703                              l552 0672  
                            l392 05EC                              l561 06FB                              l553 066F  
                            l393 05DA                              l570 0770                              l562 071F  
                            l554 067A                              l394 05DB                              l571 0778  
                            l563 072B                              l555 069C                              l547 062E  
                            l395 05EB                              l572 0777                              l564 0735  
                            l556 07FC                              l548 0644                              l396 060D  
                            l573 07A8                              l565 074F                              l557 06B3  
                            l549 0641                              l397 05FC                              l574 07A7  
                            l566 0736                              l558 0724                              l398 0606  
                            l910 04A5                              l575 07C2                              l567 0743  
                            l559 06E2                              l399 05FD                              l576 07DC  
                            l568 0754                              l920 04B0                              l912 04A8  
                            l577 07E7                              l569 0779                              l578 07EB  
                            l930 04BB                              l922 04B3                              l914 04AA  
                            l940 0492                              l932 04BC                              l924 04B5  
                            l916 04AC                              l908 049F                              l950 05A7  
                            l934 04BE                              l926 04B7                              l918 04AE  
                            l942 048A                              l960 05C9                              l952 05BA  
                            l944 0589                              l936 048E                              l928 04B9  
                            l970 05F2                              l962 05D0                              l954 05BB  
                            l946 059D                              l938 0491                              l980 061E  
                            l972 05FB                              l964 05D9                              l956 05C3  
                            l948 05A6                              l990 0633                              l982 0624  
                            l974 05FD                              l966 05DB                              l958 05C5  
                            l992 0638                              l984 0628                              l976 060D  
                            l968 05EC                              l994 0641                              l986 062C  
                            l978 0612                              l996 0642                              l988 062E  
                            l998 0644                              _RE0 0080                              _RE1 0081  
                            _RE2 0082                              u500 05F2                              u501 05F1  
                            u600 0682                              u520 060B                              u440 059D  
                            u601 0681                              u521 060A                              u441 059C  
                            u610 06A1                              u530 0612                              u450 05B4  
                   __CFG_CPD$OFF 0000                              u611 06A0                              u531 0611  
                            u515 05FE                              u620 06E7                              u540 062C  
                            u460 05C9                              u621 06E6                              u541 062B  
                            u461 05C8                              u710 0741                              u550 0633  
                            u470 05D0                              u711 0740                              u551 0632  
                            u471 05CF                              u455 05B0                              u800 07B5  
                            u560 0638                              u801 07B4                              u705 0737  
                            u561 0637                              u810 07D0                              u730 0753  
                            u650 06F9                              u570 065A                              u490 05EA  
                            u811 07CF                              u731 0752                              u651 06F8  
                            u635 06E8                              u571 0659                              u491 05E9  
                            u820 07E5                              u740 0759                              u580 0661  
                            u821 07E4                              u805 07B1                              u741 0758  
                            u725 0744                              u645 06EF                              u581 0660  
                            u485 05DC                              u750 076D                              u670 0715  
                            u590 0666                              u830 04CB                              u815 07CC  
                            u751 076C                              u671 0714                              u591 0665  
                            u831 04CA                              u760 0774                              u680 072A  
                            u840 04D1                              u761 0773                              u681 0729  
                            u665 06FC                              u841 04D0                              u770 077E  
                            u690 0733                              u850 04EA                              _SET 0043  
                            u771 077D                              u691 0732                              u675 0711  
                            u851 04E9                              u780 078A                              u860 052F  
                            u781 0789                              u790 0798                              u865 052B  
                            u795 0794                     __CFG_BORV$LO 0000                              wreg 0009  
                   __CFG_IESO$ON 0000                     ___fltol@exp1 0037                             l1000 064D  
                           l1010 0661                             l1002 0652                             l1100 07A8  
                           l1020 0682                             l1012 0666                             l1004 0656  
                           l1110 07E1                             l1102 07B5                             l1030 06A1  
                           l1022 068E                             l1014 066F                             l1006 065A  
                           l1112 07E5                             l1104 07D0                             l1040 06D8  
                           l1032 06B2                             l1024 0692                             l1016 0670  
                           l1008 065C                             l1120 0495                             l1114 07E7  
                           l1106 07D3                             l1050 06F9                             l1042 06E0  
                           l1034 06B3                             l1026 069B                             l1018 0672  
                           l1130 04D1                             l1122 04C1                             l1116 07F3  
                           l1108 07DB                             l1060 071F                             l1052 06FB  
                           l1044 06E2                             l1036 06C8                             l1028 069C  
                           l1140 051A                             l1132 04DC                             l1124 04C4  
                           l1118 07FC                             l1070 073D                             l1046 06E7  
                           l1054 0703                             l1062 0724                             l1038 06D0  
                           l1142 0520                             l1134 04E0                             l1126 04C5  
                           l1150 053D                             l1080 0754                             l1072 0741  
                           l1064 072B                             l1056 0715                             l1048 06F5  
                           l1144 0521                             l1136 04E4                             l1128 04CC  
                           l1160 0546                             l1152 0540                             l1090 0779  
                           l1082 0755                             l1074 0743                             l1066 0733  
                           l1058 0716                             l1146 0535                             l1138 04F1  
                           l1170 055E                             l1162 0547                             l1154 0542  
                           l1092 077E                             l1084 0759                             l1076 074A  
                           l1068 0736                             l1148 053B                             l1172 0566  
                           l1164 054B                             l1156 0543                             l1094 0786  
                           l1086 076D                             l1078 074F                             l1174 056E  
                           l1166 054F                             l1158 0544                             l1096 078A  
                           l1088 0774                             l1176 0576                             l1168 0553  
                           l1098 07A2                             l1178 057E                             _LATA 010C  
                           _LATB 010D                             _LATC 010E                             _LATD 010F  
                           _LATE 0110                             _WPUB 020D                             _WPUE 0210  
                   __CFG_WRT$OFF 0000                    __CFG_FCMEN$ON 0000                             _main 053D  
                           _freq 0049                             btemp 007E                    __CFG_BOREN$ON 0000  
                           start 0002                  ___fldiv@new_exp 0025                    __CFG_MCLRE$ON 0000  
 __size_of_OSCILLATOR_Initialize 0007    __end_of_OSCILLATOR_Initialize 0495                    ___fltol@sign1 0036  
                          ?_main 0070                  __end_of___fldiv 07FD                    __CFG_WDTE$OFF 0000  
                __end_of___fltol 061E                            _PHASE 0041                            _RESET 0045  
                          _TRISA 008C                            _TRISB 008D                            _TRISC 008E  
                          _TRISD 008F                            _TRISE 0090                   _WDT_Initialize 048A  
                          status 0003                            wtemp0 007E                  __initialization 07FD  
                   __end_of_main 0589                           ??_main 007D                   __CFG_PLLEN$OFF 0000  
             CalculateFreq@input 0038           __end_of_WDT_Initialize 048E                           _APFCON 011D  
                         _ANSELA 018C                           _ANSELB 018D                           _ANSELD 018F  
                         _ANSELE 0190                           _BORCON 0116                           _OSCCON 0099  
                         _WDTCON 0097                           _TRISE0 0480                           _TRISE1 0481  
                         _TRISE2 0482           __size_of_CalculateFreq 004C                   __CFG_PWRTE$OFF 0000  
                      ??___fldiv 0078                   __CFG_STVREN$ON 0000                        ??___fltol 0031  
                ?_WDT_Initialize 0070                _SYSTEM_Initialize 0495          __end_of__initialization 07FD  
                  spi_write@data 0070               ?_SYSTEM_Initialize 0070                       ___fltol@f1 002D  
                 __pcstackCOMMON 0070              ??_SYSTEM_Initialize 0070                    _CalculateFreq 04F1  
                 _OPTION_REGbits 0095        __end_of_SYSTEM_Initialize 049F                       __pmaintext 053D  
                 ?_CalculateFreq 0038                          _OSCTUNE 0098               __size_of_spi_write 0030  
                        ___fldiv 061E                          ___fltol 0589                          __ptext1 04C1  
                        __ptext2 0495                          __ptext3 048A                          __ptext4 049F  
                        __ptext5 048E                          __ptext6 04F1                          __ptext7 0589  
                        __ptext8 061E                          _freqLSB 004D                          _freqMSB 0047  
          _OSCILLATOR_Initialize 048E         ??_PIN_MANAGER_Initialize 0070       __size_of_SYSTEM_Initialize 000A  
           end_of_initialization 07FD                __end_of_spi_write 04F1                  ??_CalculateFreq 003C  
               ??_WDT_Initialize 0070                 __CFG_FOSC$INTOSC 0000                      ___fldiv@grs 0027  
                    ___fldiv@rem 0020           ?_OSCILLATOR_Initialize 0070              start_initialization 07FD  
__size_of_PIN_MANAGER_Initialize 0022                        ___fldiv@a 0070                        ___fldiv@b 0074  
                      ___latbits 0002                    __pcstackBANK0 0020                        __pnvBANK0 0041  
         _PIN_MANAGER_Initialize 049F                         ?___fldiv 0070                         ?___fltol 002D  
                      _spi_write 04C1                       spi_write@i 0073          ??_OSCILLATOR_Initialize 0070  
               __size_of___fldiv 01DF                 __size_of___fltol 0095                       ?_spi_write 0070  
          __end_of_CalculateFreq 053D                    __size_of_main 004C          __size_of_WDT_Initialize 0004  
        ?_PIN_MANAGER_Initialize 0070                __CFG_CLKOUTEN$OFF 0000                      ??_spi_write 0072  
 __end_of_PIN_MANAGER_Initialize 04C1  
